Archive member included to satisfy reference by file (symbol)

/home/runner/work/CatSneeze_toolkit/CatSneeze_toolkit/_ti_sdk/simplelink_cc13xx_cc26xx_sdk_8_32_00_07/source/ti/drivers/rf/lib/gcc/m4f/rf_multiMode_cc13x2.a(RFCC26X2_multiMode.c.cc13x2.gcc.o)
                              CMakeFiles/nrf24_sniffer.dir/nrf24_sniffer.c.obj (RF_runCmd)
/home/runner/work/CatSneeze_toolkit/CatSneeze_toolkit/_ti_sdk/simplelink_cc13xx_cc26xx_sdk_8_32_00_07/source/ti/drivers/rf/lib/gcc/m4f/rf_multiMode_cc13x2.a(rfc.c.cc13x2.gcc.o)
                              /home/runner/work/CatSneeze_toolkit/CatSneeze_toolkit/_ti_sdk/simplelink_cc13xx_cc26xx_sdk_8_32_00_07/source/ti/drivers/rf/lib/gcc/m4f/rf_multiMode_cc13x2.a(RFCC26X2_multiMode.c.cc13x2.gcc.o) (NOROM_RFCCpeIntGetAndClear)
/home/runner/work/CatSneeze_toolkit/CatSneeze_toolkit/_ti_sdk/simplelink_cc13xx_cc26xx_sdk_8_32_00_07/source/ti/drivers/rf/lib/gcc/m4f/rf_multiMode_cc13x2.a(rf_patch_cpe_prop.c.cc13x2.gcc.o)
                              CMakeFiles/nrf24_sniffer.dir/smartrf_settings.c.obj (rf_patch_cpe_prop)
/home/runner/work/CatSneeze_toolkit/CatSneeze_toolkit/_ti_sdk/simplelink_cc13xx_cc26xx_sdk_8_32_00_07/source/ti/drivers/lib/gcc/m4f/drivers_cc13x2x7.a(List.c.obj)
                              /home/runner/work/CatSneeze_toolkit/CatSneeze_toolkit/_ti_sdk/simplelink_cc13xx_cc26xx_sdk_8_32_00_07/source/ti/drivers/rf/lib/gcc/m4f/rf_multiMode_cc13x2.a(RFCC26X2_multiMode.c.cc13x2.gcc.o) (List_clearList)
/home/runner/work/CatSneeze_toolkit/CatSneeze_toolkit/_ti_sdk/simplelink_cc13xx_cc26xx_sdk_8_32_00_07/source/ti/drivers/lib/gcc/m4f/drivers_cc13x2x7.a(PowerCC26X2.c.obj)
                              CMakeFiles/nrf24_sniffer.dir/syscfg_pregenerated/ti_drivers_config.c.obj (Power_init)
/home/runner/work/CatSneeze_toolkit/CatSneeze_toolkit/_ti_sdk/simplelink_cc13xx_cc26xx_sdk_8_32_00_07/source/ti/drivers/lib/gcc/m4f/drivers_cc13x2x7.a(PowerCC26X2_calibrateRCOSC.c.obj)
                              /home/runner/work/CatSneeze_toolkit/CatSneeze_toolkit/_ti_sdk/simplelink_cc13xx_cc26xx_sdk_8_32_00_07/source/ti/drivers/lib/gcc/m4f/drivers_cc13x2x7.a(PowerCC26X2.c.obj) (PowerCC26X2_initiateCalibration)
/home/runner/work/CatSneeze_toolkit/CatSneeze_toolkit/_ti_sdk/simplelink_cc13xx_cc26xx_sdk_8_32_00_07/source/ti/drivers/lib/gcc/m4f/drivers_cc13x2x7.a(TemperatureCC26X2.c.obj)
                              /home/runner/work/CatSneeze_toolkit/CatSneeze_toolkit/_ti_sdk/simplelink_cc13xx_cc26xx_sdk_8_32_00_07/source/ti/drivers/rf/lib/gcc/m4f/rf_multiMode_cc13x2.a(RFCC26X2_multiMode.c.cc13x2.gcc.o) (Temperature_init)
/home/runner/work/CatSneeze_toolkit/CatSneeze_toolkit/_ti_sdk/simplelink_cc13xx_cc26xx_sdk_8_32_00_07/source/ti/drivers/lib/gcc/m4f/drivers_cc13x2x7.a(UART2.c.obj)
                              CMakeFiles/nrf24_sniffer.dir/nrf24_sniffer.c.obj (UART2_Params_init)
/home/runner/work/CatSneeze_toolkit/CatSneeze_toolkit/_ti_sdk/simplelink_cc13xx_cc26xx_sdk_8_32_00_07/source/ti/drivers/lib/gcc/m4f/drivers_cc13x2x7.a(UART2CC26X2.c.obj)
                              CMakeFiles/nrf24_sniffer.dir/nrf24_sniffer.c.obj (UART2_open)
/home/runner/work/CatSneeze_toolkit/CatSneeze_toolkit/_ti_sdk/simplelink_cc13xx_cc26xx_sdk_8_32_00_07/source/ti/drivers/lib/gcc/m4f/drivers_cc13x2x7.a(PowerCC26X2_calibrateRCOSC_helpers.c.obj)
                              /home/runner/work/CatSneeze_toolkit/CatSneeze_toolkit/_ti_sdk/simplelink_cc13xx_cc26xx_sdk_8_32_00_07/source/ti/drivers/lib/gcc/m4f/drivers_cc13x2x7.a(PowerCC26X2_calibrateRCOSC.c.obj) (PowerCC26X2_updateSubSecInc)
/home/runner/work/CatSneeze_toolkit/CatSneeze_toolkit/_ti_sdk/simplelink_cc13xx_cc26xx_sdk_8_32_00_07/source/ti/drivers/lib/gcc/m4f/drivers_cc13x2x7.a(PowerCC26X2_helpers.c.obj)
                              /home/runner/work/CatSneeze_toolkit/CatSneeze_toolkit/_ti_sdk/simplelink_cc13xx_cc26xx_sdk_8_32_00_07/source/ti/drivers/lib/gcc/m4f/drivers_cc13x2x7.a(PowerCC26X2.c.obj) (PowerCC26X2_oscCtlClearXtal)
/home/runner/work/CatSneeze_toolkit/CatSneeze_toolkit/_ti_sdk/simplelink_cc13xx_cc26xx_sdk_8_32_00_07/source/ti/drivers/lib/gcc/m4f/drivers_cc13x2x7.a(RingBuf.c.obj)
                              /home/runner/work/CatSneeze_toolkit/CatSneeze_toolkit/_ti_sdk/simplelink_cc13xx_cc26xx_sdk_8_32_00_07/source/ti/drivers/lib/gcc/m4f/drivers_cc13x2x7.a(UART2CC26X2.c.obj) (RingBuf_construct)
/home/runner/work/CatSneeze_toolkit/CatSneeze_toolkit/_ti_sdk/simplelink_cc13xx_cc26xx_sdk_8_32_00_07/source/ti/drivers/lib/gcc/m4f/drivers_cc13x2x7.a(UDMACC26XX.c.obj)
                              /home/runner/work/CatSneeze_toolkit/CatSneeze_toolkit/_ti_sdk/simplelink_cc13xx_cc26xx_sdk_8_32_00_07/source/ti/drivers/lib/gcc/m4f/drivers_cc13x2x7.a(UART2CC26X2.c.obj) (UDMACC26XX_open)
/home/runner/work/CatSneeze_toolkit/CatSneeze_toolkit/_ti_sdk/simplelink_cc13xx_cc26xx_sdk_8_32_00_07/source/ti/drivers/lib/gcc/m4f/drivers_cc13x2x7.a(GPIO.c.obj)
                              /home/runner/work/CatSneeze_toolkit/CatSneeze_toolkit/_ti_sdk/simplelink_cc13xx_cc26xx_sdk_8_32_00_07/source/ti/drivers/lib/gcc/m4f/drivers_cc13x2x7.a(UART2CC26X2.c.obj) (GPIO_resetConfig)
/home/runner/work/CatSneeze_toolkit/CatSneeze_toolkit/_ti_sdk/simplelink_cc13xx_cc26xx_sdk_8_32_00_07/source/ti/drivers/lib/gcc/m4f/drivers_cc13x2x7.a(GPIOCC26XX.c.obj)
                              /home/runner/work/CatSneeze_toolkit/CatSneeze_toolkit/_ti_sdk/simplelink_cc13xx_cc26xx_sdk_8_32_00_07/source/ti/drivers/lib/gcc/m4f/drivers_cc13x2x7.a(GPIO.c.obj) (GPIO_disableInt)
/home/runner/work/CatSneeze_toolkit/CatSneeze_toolkit/_ti_sdk/simplelink_cc13xx_cc26xx_sdk_8_32_00_07/kernel/nortos/lib/gcc/m4f/nortos_cc13x2x7.a(NoRTOS.c.obj)
                              CMakeFiles/nrf24_sniffer.dir/nrf24_sniffer.c.obj (NoRTOS_start)
/home/runner/work/CatSneeze_toolkit/CatSneeze_toolkit/_ti_sdk/simplelink_cc13xx_cc26xx_sdk_8_32_00_07/kernel/nortos/lib/gcc/m4f/nortos_cc13x2x7.a(SemaphoreP_nortos.c.obj)
                              /home/runner/work/CatSneeze_toolkit/CatSneeze_toolkit/_ti_sdk/simplelink_cc13xx_cc26xx_sdk_8_32_00_07/kernel/nortos/lib/gcc/m4f/nortos_cc13x2x7.a(NoRTOS.c.obj) (SemaphoreP_defaultParams)
/home/runner/work/CatSneeze_toolkit/CatSneeze_toolkit/_ti_sdk/simplelink_cc13xx_cc26xx_sdk_8_32_00_07/kernel/nortos/lib/gcc/m4f/nortos_cc13x2x7.a(SwiP_nortos.c.obj)
                              /home/runner/work/CatSneeze_toolkit/CatSneeze_toolkit/_ti_sdk/simplelink_cc13xx_cc26xx_sdk_8_32_00_07/source/ti/drivers/rf/lib/gcc/m4f/rf_multiMode_cc13x2.a(RFCC26X2_multiMode.c.cc13x2.gcc.o) (SwiP_Params_init)
/home/runner/work/CatSneeze_toolkit/CatSneeze_toolkit/_ti_sdk/simplelink_cc13xx_cc26xx_sdk_8_32_00_07/kernel/nortos/lib/gcc/m4f/nortos_cc13x2x7.a(ClockPTimer_nortos.c.obj)
                              /home/runner/work/CatSneeze_toolkit/CatSneeze_toolkit/_ti_sdk/simplelink_cc13xx_cc26xx_sdk_8_32_00_07/kernel/nortos/lib/gcc/m4f/nortos_cc13x2x7.a(NoRTOS.c.obj) (ClockP_tickPeriod)
/home/runner/work/CatSneeze_toolkit/CatSneeze_toolkit/_ti_sdk/simplelink_cc13xx_cc26xx_sdk_8_32_00_07/kernel/nortos/lib/gcc/m4f/nortos_cc13x2x7.a(QueueP_nortos.c.obj)
                              /home/runner/work/CatSneeze_toolkit/CatSneeze_toolkit/_ti_sdk/simplelink_cc13xx_cc26xx_sdk_8_32_00_07/kernel/nortos/lib/gcc/m4f/nortos_cc13x2x7.a(SwiP_nortos.c.obj) (QueueP_init)
/home/runner/work/CatSneeze_toolkit/CatSneeze_toolkit/_ti_sdk/simplelink_cc13xx_cc26xx_sdk_8_32_00_07/kernel/nortos/lib/gcc/m4f/nortos_cc13x2x7.a(HwiPCC26XX_nortos.c.obj)
                              /home/runner/work/CatSneeze_toolkit/CatSneeze_toolkit/_ti_sdk/simplelink_cc13xx_cc26xx_sdk_8_32_00_07/kernel/nortos/lib/gcc/m4f/nortos_cc13x2x7.a(NoRTOS.c.obj) (HwiP_enable)
/home/runner/work/CatSneeze_toolkit/CatSneeze_toolkit/_ti_sdk/simplelink_cc13xx_cc26xx_sdk_8_32_00_07/kernel/nortos/lib/gcc/m4f/nortos_cc13x2x7.a(PowerCC26X2_nortos.c.obj)
                              CMakeFiles/nrf24_sniffer.dir/syscfg_pregenerated/ti_drivers_config.c.obj (PowerCC26XX_standbyPolicy)
/home/runner/work/CatSneeze_toolkit/CatSneeze_toolkit/_ti_sdk/simplelink_cc13xx_cc26xx_sdk_8_32_00_07/kernel/nortos/lib/gcc/m4f/nortos_cc13x2x7.a(TimerPCC26XX_nortos.c.obj)
                              /home/runner/work/CatSneeze_toolkit/CatSneeze_toolkit/_ti_sdk/simplelink_cc13xx_cc26xx_sdk_8_32_00_07/kernel/nortos/lib/gcc/m4f/nortos_cc13x2x7.a(ClockPTimer_nortos.c.obj) (TimerP_Params_init)
/home/runner/work/CatSneeze_toolkit/CatSneeze_toolkit/_ti_sdk/simplelink_cc13xx_cc26xx_sdk_8_32_00_07/source/ti/devices/cc13x2x7_cc26x2x7/driverlib/bin/gcc/driverlib.lib(chipinfo.c.obj)
                              /home/runner/work/CatSneeze_toolkit/CatSneeze_toolkit/_ti_sdk/simplelink_cc13xx_cc26xx_sdk_8_32_00_07/source/ti/drivers/rf/lib/gcc/m4f/rf_multiMode_cc13x2.a(RFCC26X2_multiMode.c.cc13x2.gcc.o) (NOROM_ChipInfo_GetChipType)
/home/runner/work/CatSneeze_toolkit/CatSneeze_toolkit/_ti_sdk/simplelink_cc13xx_cc26xx_sdk_8_32_00_07/source/ti/devices/cc13x2x7_cc26x2x7/driverlib/bin/gcc/driverlib.lib(cpu.c.obj)
                              CMakeFiles/nrf24_sniffer.dir/nrf24_sniffer.c.obj (NOROM_CPUcpsid)
/home/runner/work/CatSneeze_toolkit/CatSneeze_toolkit/_ti_sdk/simplelink_cc13xx_cc26xx_sdk_8_32_00_07/source/ti/devices/cc13x2x7_cc26x2x7/driverlib/bin/gcc/driverlib.lib(interrupt.c.obj)
                              /home/runner/work/CatSneeze_toolkit/CatSneeze_toolkit/_ti_sdk/simplelink_cc13xx_cc26xx_sdk_8_32_00_07/kernel/nortos/lib/gcc/m4f/nortos_cc13x2x7.a(HwiPCC26XX_nortos.c.obj) (NOROM_IntRegister)
/home/runner/work/CatSneeze_toolkit/CatSneeze_toolkit/_ti_sdk/simplelink_cc13xx_cc26xx_sdk_8_32_00_07/source/ti/devices/cc13x2x7_cc26x2x7/driverlib/bin/gcc/driverlib.lib(osc.c.obj)
                              /home/runner/work/CatSneeze_toolkit/CatSneeze_toolkit/_ti_sdk/simplelink_cc13xx_cc26xx_sdk_8_32_00_07/source/ti/drivers/lib/gcc/m4f/drivers_cc13x2x7.a(PowerCC26X2.c.obj) (NOROM_OSCHF_GetStartupTime)
/home/runner/work/CatSneeze_toolkit/CatSneeze_toolkit/_ti_sdk/simplelink_cc13xx_cc26xx_sdk_8_32_00_07/source/ti/devices/cc13x2x7_cc26x2x7/driverlib/bin/gcc/driverlib.lib(prcm.c.obj)
                              /home/runner/work/CatSneeze_toolkit/CatSneeze_toolkit/_ti_sdk/simplelink_cc13xx_cc26xx_sdk_8_32_00_07/source/ti/drivers/lib/gcc/m4f/drivers_cc13x2x7.a(PowerCC26X2.c.obj) (NOROM_PRCMPowerDomainsAllOff)
/home/runner/work/CatSneeze_toolkit/CatSneeze_toolkit/_ti_sdk/simplelink_cc13xx_cc26xx_sdk_8_32_00_07/source/ti/devices/cc13x2x7_cc26x2x7/driverlib/bin/gcc/driverlib.lib(setup.c.obj)
                              CMakeFiles/nrf24_sniffer.dir/home/runner/work/CatSneeze_toolkit/CatSneeze_toolkit/_ti_sdk/simplelink_cc13xx_cc26xx_sdk_8_32_00_07/source/ti/devices/cc13x2x7_cc26x2x7/startup_files/startup_gcc.c.obj (NOROM_SetupTrimDevice)
/home/runner/work/CatSneeze_toolkit/CatSneeze_toolkit/_ti_sdk/simplelink_cc13xx_cc26xx_sdk_8_32_00_07/source/ti/devices/cc13x2x7_cc26x2x7/driverlib/bin/gcc/driverlib.lib(sys_ctrl.c.obj)
                              /home/runner/work/CatSneeze_toolkit/CatSneeze_toolkit/_ti_sdk/simplelink_cc13xx_cc26xx_sdk_8_32_00_07/source/ti/drivers/lib/gcc/m4f/drivers_cc13x2x7.a(PowerCC26X2_helpers.c.obj) (NOROM_SysCtrlIdle)
/home/runner/work/CatSneeze_toolkit/CatSneeze_toolkit/_ti_sdk/simplelink_cc13xx_cc26xx_sdk_8_32_00_07/source/ti/devices/cc13x2x7_cc26x2x7/driverlib/bin/gcc/driverlib.lib(aux_sysif.c.obj)
                              /home/runner/work/CatSneeze_toolkit/CatSneeze_toolkit/_ti_sdk/simplelink_cc13xx_cc26xx_sdk_8_32_00_07/source/ti/devices/cc13x2x7_cc26x2x7/driverlib/bin/gcc/driverlib.lib(setup.c.obj) (NOROM_AUXSYSIFOpModeChange)
/usr/lib/gcc/arm-none-eabi/10.3.1/thumb/v7e-m+fp/hard/libgcc.a(_aeabi_ldivmod.o)
                              /home/runner/work/CatSneeze_toolkit/CatSneeze_toolkit/_ti_sdk/simplelink_cc13xx_cc26xx_sdk_8_32_00_07/source/ti/drivers/lib/gcc/m4f/drivers_cc13x2x7.a(PowerCC26X2.c.obj) (__aeabi_ldivmod)
/usr/lib/gcc/arm-none-eabi/10.3.1/thumb/v7e-m+fp/hard/libgcc.a(_aeabi_uldivmod.o)
                              /home/runner/work/CatSneeze_toolkit/CatSneeze_toolkit/_ti_sdk/simplelink_cc13xx_cc26xx_sdk_8_32_00_07/kernel/nortos/lib/gcc/m4f/nortos_cc13x2x7.a(ClockPTimer_nortos.c.obj) (__aeabi_uldivmod)
/usr/lib/gcc/arm-none-eabi/10.3.1/thumb/v7e-m+fp/hard/libgcc.a(_udivmoddi4.o)
                              /usr/lib/gcc/arm-none-eabi/10.3.1/thumb/v7e-m+fp/hard/libgcc.a(_aeabi_ldivmod.o) (__udivmoddi4)
/usr/lib/gcc/arm-none-eabi/10.3.1/thumb/v7e-m+fp/hard/libgcc.a(_dvmd_tls.o)
                              /usr/lib/gcc/arm-none-eabi/10.3.1/thumb/v7e-m+fp/hard/libgcc.a(_aeabi_ldivmod.o) (__aeabi_ldiv0)
/usr/lib/gcc/arm-none-eabi/10.3.1/../../../arm-none-eabi/lib/thumb/v7e-m+fp/hard/libc_nano.a(lib_a-atoi.o)
                              CMakeFiles/nrf24_sniffer.dir/nrf24_sniffer.c.obj (atoi)
/usr/lib/gcc/arm-none-eabi/10.3.1/../../../arm-none-eabi/lib/thumb/v7e-m+fp/hard/libc_nano.a(lib_a-ctype_.o)
                              CMakeFiles/nrf24_sniffer.dir/nrf24_sniffer.c.obj (_ctype_)
/usr/lib/gcc/arm-none-eabi/10.3.1/../../../arm-none-eabi/lib/thumb/v7e-m+fp/hard/libc_nano.a(lib_a-malloc.o)
                              /home/runner/work/CatSneeze_toolkit/CatSneeze_toolkit/_ti_sdk/simplelink_cc13xx_cc26xx_sdk_8_32_00_07/kernel/nortos/lib/gcc/m4f/nortos_cc13x2x7.a(SemaphoreP_nortos.c.obj) (malloc)
/usr/lib/gcc/arm-none-eabi/10.3.1/../../../arm-none-eabi/lib/thumb/v7e-m+fp/hard/libc_nano.a(lib_a-memcpy.o)
                              CMakeFiles/nrf24_sniffer.dir/nrf24_sniffer.c.obj (memcpy)
/usr/lib/gcc/arm-none-eabi/10.3.1/../../../arm-none-eabi/lib/thumb/v7e-m+fp/hard/libc_nano.a(lib_a-memset.o)
                              CMakeFiles/nrf24_sniffer.dir/nrf24_sniffer.c.obj (memset)
/usr/lib/gcc/arm-none-eabi/10.3.1/../../../arm-none-eabi/lib/thumb/v7e-m+fp/hard/libc_nano.a(lib_a-nano-freer.o)
                              /usr/lib/gcc/arm-none-eabi/10.3.1/../../../arm-none-eabi/lib/thumb/v7e-m+fp/hard/libc_nano.a(lib_a-malloc.o) (_free_r)
/usr/lib/gcc/arm-none-eabi/10.3.1/../../../arm-none-eabi/lib/thumb/v7e-m+fp/hard/libc_nano.a(lib_a-nano-mallocr.o)
                              /usr/lib/gcc/arm-none-eabi/10.3.1/../../../arm-none-eabi/lib/thumb/v7e-m+fp/hard/libc_nano.a(lib_a-malloc.o) (_malloc_r)
/usr/lib/gcc/arm-none-eabi/10.3.1/../../../arm-none-eabi/lib/thumb/v7e-m+fp/hard/libc_nano.a(lib_a-sbrkr.o)
                              /usr/lib/gcc/arm-none-eabi/10.3.1/../../../arm-none-eabi/lib/thumb/v7e-m+fp/hard/libc_nano.a(lib_a-nano-mallocr.o) (_sbrk_r)
/usr/lib/gcc/arm-none-eabi/10.3.1/../../../arm-none-eabi/lib/thumb/v7e-m+fp/hard/libc_nano.a(lib_a-strchr.o)
                              CMakeFiles/nrf24_sniffer.dir/nrf24_sniffer.c.obj (strchr)
/usr/lib/gcc/arm-none-eabi/10.3.1/../../../arm-none-eabi/lib/thumb/v7e-m+fp/hard/libc_nano.a(lib_a-strcmp.o)
                              CMakeFiles/nrf24_sniffer.dir/nrf24_sniffer.c.obj (strcmp)
/usr/lib/gcc/arm-none-eabi/10.3.1/../../../arm-none-eabi/lib/thumb/v7e-m+fp/hard/libc_nano.a(lib_a-strlen.o)
                              CMakeFiles/nrf24_sniffer.dir/nrf24_sniffer.c.obj (strlen)
/usr/lib/gcc/arm-none-eabi/10.3.1/../../../arm-none-eabi/lib/thumb/v7e-m+fp/hard/libc_nano.a(lib_a-strncmp.o)
                              CMakeFiles/nrf24_sniffer.dir/nrf24_sniffer.c.obj (strncmp)
/usr/lib/gcc/arm-none-eabi/10.3.1/../../../arm-none-eabi/lib/thumb/v7e-m+fp/hard/libc_nano.a(lib_a-strtol.o)
                              /usr/lib/gcc/arm-none-eabi/10.3.1/../../../arm-none-eabi/lib/thumb/v7e-m+fp/hard/libc_nano.a(lib_a-atoi.o) (_strtol_r)
/usr/lib/gcc/arm-none-eabi/10.3.1/../../../arm-none-eabi/lib/thumb/v7e-m+fp/hard/libc_nano.a(lib_a-vsnprintf.o)
                              CMakeFiles/nrf24_sniffer.dir/nrf24_sniffer.c.obj (vsnprintf)
/usr/lib/gcc/arm-none-eabi/10.3.1/../../../arm-none-eabi/lib/thumb/v7e-m+fp/hard/libc_nano.a(lib_a-errno.o)
                              /usr/lib/gcc/arm-none-eabi/10.3.1/../../../arm-none-eabi/lib/thumb/v7e-m+fp/hard/libc_nano.a(lib_a-strtol.o) (__errno)
/usr/lib/gcc/arm-none-eabi/10.3.1/../../../arm-none-eabi/lib/thumb/v7e-m+fp/hard/libc_nano.a(lib_a-impure.o)
                              /usr/lib/gcc/arm-none-eabi/10.3.1/../../../arm-none-eabi/lib/thumb/v7e-m+fp/hard/libc_nano.a(lib_a-malloc.o) (_impure_ptr)
/usr/lib/gcc/arm-none-eabi/10.3.1/../../../arm-none-eabi/lib/thumb/v7e-m+fp/hard/libc_nano.a(lib_a-mlock.o)
                              /usr/lib/gcc/arm-none-eabi/10.3.1/../../../arm-none-eabi/lib/thumb/v7e-m+fp/hard/libc_nano.a(lib_a-nano-freer.o) (__malloc_lock)
/usr/lib/gcc/arm-none-eabi/10.3.1/../../../arm-none-eabi/lib/thumb/v7e-m+fp/hard/libc_nano.a(lib_a-nano-svfprintf.o)
                              /usr/lib/gcc/arm-none-eabi/10.3.1/../../../arm-none-eabi/lib/thumb/v7e-m+fp/hard/libc_nano.a(lib_a-vsnprintf.o) (_svfprintf_r)
/usr/lib/gcc/arm-none-eabi/10.3.1/../../../arm-none-eabi/lib/thumb/v7e-m+fp/hard/libc_nano.a(lib_a-nano-vfprintf_i.o)
                              /usr/lib/gcc/arm-none-eabi/10.3.1/../../../arm-none-eabi/lib/thumb/v7e-m+fp/hard/libc_nano.a(lib_a-nano-svfprintf.o) (_printf_i)
/usr/lib/gcc/arm-none-eabi/10.3.1/../../../arm-none-eabi/lib/thumb/v7e-m+fp/hard/libc_nano.a(lib_a-reent.o)
                              /usr/lib/gcc/arm-none-eabi/10.3.1/../../../arm-none-eabi/lib/thumb/v7e-m+fp/hard/libc_nano.a(lib_a-sbrkr.o) (errno)
/usr/lib/gcc/arm-none-eabi/10.3.1/../../../arm-none-eabi/lib/thumb/v7e-m+fp/hard/libc_nano.a(lib_a-memchr.o)
                              /usr/lib/gcc/arm-none-eabi/10.3.1/../../../arm-none-eabi/lib/thumb/v7e-m+fp/hard/libc_nano.a(lib_a-nano-svfprintf.o) (memchr)
/usr/lib/gcc/arm-none-eabi/10.3.1/../../../arm-none-eabi/lib/thumb/v7e-m+fp/hard/libc_nano.a(lib_a-memmove.o)
                              /usr/lib/gcc/arm-none-eabi/10.3.1/../../../arm-none-eabi/lib/thumb/v7e-m+fp/hard/libc_nano.a(lib_a-nano-svfprintf.o) (memmove)
/usr/lib/gcc/arm-none-eabi/10.3.1/../../../arm-none-eabi/lib/thumb/v7e-m+fp/hard/libc_nano.a(lib_a-nano-reallocr.o)
                              /usr/lib/gcc/arm-none-eabi/10.3.1/../../../arm-none-eabi/lib/thumb/v7e-m+fp/hard/libc_nano.a(lib_a-nano-svfprintf.o) (_realloc_r)
/usr/lib/gcc/arm-none-eabi/10.3.1/../../../arm-none-eabi/lib/thumb/v7e-m+fp/hard/libc_nano.a(lib_a-nano-msizer.o)
                              /usr/lib/gcc/arm-none-eabi/10.3.1/../../../arm-none-eabi/lib/thumb/v7e-m+fp/hard/libc_nano.a(lib_a-nano-reallocr.o) (_malloc_usable_size_r)
/usr/lib/gcc/arm-none-eabi/10.3.1/../../../arm-none-eabi/lib/thumb/v7e-m+fp/hard/libnosys.a(sbrk.o)
                              /usr/lib/gcc/arm-none-eabi/10.3.1/../../../arm-none-eabi/lib/thumb/v7e-m+fp/hard/libc_nano.a(lib_a-sbrkr.o) (_sbrk)

Discarded input sections

 .text          0x0000000000000000        0x0 CMakeFiles/nrf24_sniffer.dir/nrf24_sniffer.c.obj
 .data          0x0000000000000000        0x0 CMakeFiles/nrf24_sniffer.dir/nrf24_sniffer.c.obj
 .bss           0x0000000000000000        0x0 CMakeFiles/nrf24_sniffer.dir/nrf24_sniffer.c.obj
 .text          0x0000000000000000        0x0 CMakeFiles/nrf24_sniffer.dir/smartrf_settings.c.obj
 .data          0x0000000000000000        0x0 CMakeFiles/nrf24_sniffer.dir/smartrf_settings.c.obj
 .bss           0x0000000000000000        0x0 CMakeFiles/nrf24_sniffer.dir/smartrf_settings.c.obj
 .data.RF_cmdFs
                0x0000000000000000       0x18 CMakeFiles/nrf24_sniffer.dir/smartrf_settings.c.obj
 .text          0x0000000000000000        0x0 CMakeFiles/nrf24_sniffer.dir/home/runner/work/CatSneeze_toolkit/CatSneeze_toolkit/_ti_sdk/simplelink_cc13xx_cc26xx_sdk_8_32_00_07/source/ti/devices/cc13x2x7_cc26x2x7/startup_files/startup_gcc.c.obj
 .data          0x0000000000000000        0x0 CMakeFiles/nrf24_sniffer.dir/home/runner/work/CatSneeze_toolkit/CatSneeze_toolkit/_ti_sdk/simplelink_cc13xx_cc26xx_sdk_8_32_00_07/source/ti/devices/cc13x2x7_cc26x2x7/startup_files/startup_gcc.c.obj
 .bss           0x0000000000000000        0x0 CMakeFiles/nrf24_sniffer.dir/home/runner/work/CatSneeze_toolkit/CatSneeze_toolkit/_ti_sdk/simplelink_cc13xx_cc26xx_sdk_8_32_00_07/source/ti/devices/cc13x2x7_cc26x2x7/startup_files/startup_gcc.c.obj
 .text          0x0000000000000000        0x0 CMakeFiles/nrf24_sniffer.dir/home/runner/work/CatSneeze_toolkit/CatSneeze_toolkit/_ti_sdk/simplelink_cc13xx_cc26xx_sdk_8_32_00_07/source/ti/devices/cc13x2x7_cc26x2x7/startup_files/ccfg.c.obj
 .data          0x0000000000000000        0x0 CMakeFiles/nrf24_sniffer.dir/home/runner/work/CatSneeze_toolkit/CatSneeze_toolkit/_ti_sdk/simplelink_cc13xx_cc26xx_sdk_8_32_00_07/source/ti/devices/cc13x2x7_cc26x2x7/startup_files/ccfg.c.obj
 .bss           0x0000000000000000        0x0 CMakeFiles/nrf24_sniffer.dir/home/runner/work/CatSneeze_toolkit/CatSneeze_toolkit/_ti_sdk/simplelink_cc13xx_cc26xx_sdk_8_32_00_07/source/ti/devices/cc13x2x7_cc26x2x7/startup_files/ccfg.c.obj
 .text          0x0000000000000000        0x0 CMakeFiles/nrf24_sniffer.dir/syscfg_pregenerated/ti_drivers_config.c.obj
 .data          0x0000000000000000        0x0 CMakeFiles/nrf24_sniffer.dir/syscfg_pregenerated/ti_drivers_config.c.obj
 .bss           0x0000000000000000        0x0 CMakeFiles/nrf24_sniffer.dir/syscfg_pregenerated/ti_drivers_config.c.obj
 .text.Board_initGeneral
                0x0000000000000000        0x4 CMakeFiles/nrf24_sniffer.dir/syscfg_pregenerated/ti_drivers_config.c.obj
 .text          0x0000000000000000        0x0 /home/runner/work/CatSneeze_toolkit/CatSneeze_toolkit/_ti_sdk/simplelink_cc13xx_cc26xx_sdk_8_32_00_07/source/ti/drivers/rf/lib/gcc/m4f/rf_multiMode_cc13x2.a(RFCC26X2_multiMode.c.cc13x2.gcc.o)
 .data          0x0000000000000000        0x0 /home/runner/work/CatSneeze_toolkit/CatSneeze_toolkit/_ti_sdk/simplelink_cc13xx_cc26xx_sdk_8_32_00_07/source/ti/drivers/rf/lib/gcc/m4f/rf_multiMode_cc13x2.a(RFCC26X2_multiMode.c.cc13x2.gcc.o)
 .bss           0x0000000000000000        0x0 /home/runner/work/CatSneeze_toolkit/CatSneeze_toolkit/_ti_sdk/simplelink_cc13xx_cc26xx_sdk_8_32_00_07/source/ti/drivers/rf/lib/gcc/m4f/rf_multiMode_cc13x2.a(RFCC26X2_multiMode.c.cc13x2.gcc.o)
 .text.RF_runDirectImmediateCmd
                0x0000000000000000       0x34 /home/runner/work/CatSneeze_toolkit/CatSneeze_toolkit/_ti_sdk/simplelink_cc13xx_cc26xx_sdk_8_32_00_07/source/ti/drivers/rf/lib/gcc/m4f/rf_multiMode_cc13x2.a(RFCC26X2_multiMode.c.cc13x2.gcc.o)
 .text.RF_updateHpOscOverride
                0x0000000000000000       0x44 /home/runner/work/CatSneeze_toolkit/CatSneeze_toolkit/_ti_sdk/simplelink_cc13xx_cc26xx_sdk_8_32_00_07/source/ti/drivers/rf/lib/gcc/m4f/rf_multiMode_cc13x2.a(RFCC26X2_multiMode.c.cc13x2.gcc.o)
 .text.RF_hposcRfCompensateFxn
                0x0000000000000000       0xa4 /home/runner/work/CatSneeze_toolkit/CatSneeze_toolkit/_ti_sdk/simplelink_cc13xx_cc26xx_sdk_8_32_00_07/source/ti/drivers/rf/lib/gcc/m4f/rf_multiMode_cc13x2.a(RFCC26X2_multiMode.c.cc13x2.gcc.o)
 .text.RF_queueEnd
                0x0000000000000000       0x24 /home/runner/work/CatSneeze_toolkit/CatSneeze_toolkit/_ti_sdk/simplelink_cc13xx_cc26xx_sdk_8_32_00_07/source/ti/drivers/rf/lib/gcc/m4f/rf_multiMode_cc13x2.a(RFCC26X2_multiMode.c.cc13x2.gcc.o)
 .text.RF_powerConstraintGet
                0x0000000000000000        0xc /home/runner/work/CatSneeze_toolkit/CatSneeze_toolkit/_ti_sdk/simplelink_cc13xx_cc26xx_sdk_8_32_00_07/source/ti/drivers/rf/lib/gcc/m4f/rf_multiMode_cc13x2.a(RFCC26X2_multiMode.c.cc13x2.gcc.o)
 .text.RF_ratSetupChannel
                0x0000000000000000      0x134 /home/runner/work/CatSneeze_toolkit/CatSneeze_toolkit/_ti_sdk/simplelink_cc13xx_cc26xx_sdk_8_32_00_07/source/ti/drivers/rf/lib/gcc/m4f/rf_multiMode_cc13x2.a(RFCC26X2_multiMode.c.cc13x2.gcc.o)
 .text.RF_ScheduleCmdParams_init
                0x0000000000000000       0x18 /home/runner/work/CatSneeze_toolkit/CatSneeze_toolkit/_ti_sdk/simplelink_cc13xx_cc26xx_sdk_8_32_00_07/source/ti/drivers/rf/lib/gcc/m4f/rf_multiMode_cc13x2.a(RFCC26X2_multiMode.c.cc13x2.gcc.o)
 .text.RF_scheduleCmd
                0x0000000000000000      0x24c /home/runner/work/CatSneeze_toolkit/CatSneeze_toolkit/_ti_sdk/simplelink_cc13xx_cc26xx_sdk_8_32_00_07/source/ti/drivers/rf/lib/gcc/m4f/rf_multiMode_cc13x2.a(RFCC26X2_multiMode.c.cc13x2.gcc.o)
 .text.RF_close
                0x0000000000000000      0x140 /home/runner/work/CatSneeze_toolkit/CatSneeze_toolkit/_ti_sdk/simplelink_cc13xx_cc26xx_sdk_8_32_00_07/source/ti/drivers/rf/lib/gcc/m4f/rf_multiMode_cc13x2.a(RFCC26X2_multiMode.c.cc13x2.gcc.o)
 .text.RF_runScheduleCmd
                0x0000000000000000       0x24 /home/runner/work/CatSneeze_toolkit/CatSneeze_toolkit/_ti_sdk/simplelink_cc13xx_cc26xx_sdk_8_32_00_07/source/ti/drivers/rf/lib/gcc/m4f/rf_multiMode_cc13x2.a(RFCC26X2_multiMode.c.cc13x2.gcc.o)
 .text.RF_yield
                0x0000000000000000       0x84 /home/runner/work/CatSneeze_toolkit/CatSneeze_toolkit/_ti_sdk/simplelink_cc13xx_cc26xx_sdk_8_32_00_07/source/ti/drivers/rf/lib/gcc/m4f/rf_multiMode_cc13x2.a(RFCC26X2_multiMode.c.cc13x2.gcc.o)
 .text.RF_cancelCmd
                0x0000000000000000       0x1a /home/runner/work/CatSneeze_toolkit/CatSneeze_toolkit/_ti_sdk/simplelink_cc13xx_cc26xx_sdk_8_32_00_07/source/ti/drivers/rf/lib/gcc/m4f/rf_multiMode_cc13x2.a(RFCC26X2_multiMode.c.cc13x2.gcc.o)
 .text.RF_flushCmd
                0x0000000000000000       0x16 /home/runner/work/CatSneeze_toolkit/CatSneeze_toolkit/_ti_sdk/simplelink_cc13xx_cc26xx_sdk_8_32_00_07/source/ti/drivers/rf/lib/gcc/m4f/rf_multiMode_cc13x2.a(RFCC26X2_multiMode.c.cc13x2.gcc.o)
 .text.RF_runImmediateCmd
                0x0000000000000000        0x6 /home/runner/work/CatSneeze_toolkit/CatSneeze_toolkit/_ti_sdk/simplelink_cc13xx_cc26xx_sdk_8_32_00_07/source/ti/drivers/rf/lib/gcc/m4f/rf_multiMode_cc13x2.a(RFCC26X2_multiMode.c.cc13x2.gcc.o)
 .text.RF_runDirectCmd
                0x0000000000000000        0x6 /home/runner/work/CatSneeze_toolkit/CatSneeze_toolkit/_ti_sdk/simplelink_cc13xx_cc26xx_sdk_8_32_00_07/source/ti/drivers/rf/lib/gcc/m4f/rf_multiMode_cc13x2.a(RFCC26X2_multiMode.c.cc13x2.gcc.o)
 .text.RF_getRssi
                0x0000000000000000       0x20 /home/runner/work/CatSneeze_toolkit/CatSneeze_toolkit/_ti_sdk/simplelink_cc13xx_cc26xx_sdk_8_32_00_07/source/ti/drivers/rf/lib/gcc/m4f/rf_multiMode_cc13x2.a(RFCC26X2_multiMode.c.cc13x2.gcc.o)
 .text.RF_getInfo
                0x0000000000000000       0x7c /home/runner/work/CatSneeze_toolkit/CatSneeze_toolkit/_ti_sdk/simplelink_cc13xx_cc26xx_sdk_8_32_00_07/source/ti/drivers/rf/lib/gcc/m4f/rf_multiMode_cc13x2.a(RFCC26X2_multiMode.c.cc13x2.gcc.o)
 .text.RF_getCmdOp
                0x0000000000000000        0xe /home/runner/work/CatSneeze_toolkit/CatSneeze_toolkit/_ti_sdk/simplelink_cc13xx_cc26xx_sdk_8_32_00_07/source/ti/drivers/rf/lib/gcc/m4f/rf_multiMode_cc13x2.a(RFCC26X2_multiMode.c.cc13x2.gcc.o)
 .text.RF_RatConfigCompare_init
                0x0000000000000000        0xe /home/runner/work/CatSneeze_toolkit/CatSneeze_toolkit/_ti_sdk/simplelink_cc13xx_cc26xx_sdk_8_32_00_07/source/ti/drivers/rf/lib/gcc/m4f/rf_multiMode_cc13x2.a(RFCC26X2_multiMode.c.cc13x2.gcc.o)
 .text.RF_RatConfigCapture_init
                0x0000000000000000        0xc /home/runner/work/CatSneeze_toolkit/CatSneeze_toolkit/_ti_sdk/simplelink_cc13xx_cc26xx_sdk_8_32_00_07/source/ti/drivers/rf/lib/gcc/m4f/rf_multiMode_cc13x2.a(RFCC26X2_multiMode.c.cc13x2.gcc.o)
 .text.RF_RatConfigOutput_init
                0x0000000000000000        0x6 /home/runner/work/CatSneeze_toolkit/CatSneeze_toolkit/_ti_sdk/simplelink_cc13xx_cc26xx_sdk_8_32_00_07/source/ti/drivers/rf/lib/gcc/m4f/rf_multiMode_cc13x2.a(RFCC26X2_multiMode.c.cc13x2.gcc.o)
 .text.RF_ratCompare
                0x0000000000000000       0x18 /home/runner/work/CatSneeze_toolkit/CatSneeze_toolkit/_ti_sdk/simplelink_cc13xx_cc26xx_sdk_8_32_00_07/source/ti/drivers/rf/lib/gcc/m4f/rf_multiMode_cc13x2.a(RFCC26X2_multiMode.c.cc13x2.gcc.o)
 .text.RF_ratCapture
                0x0000000000000000       0x18 /home/runner/work/CatSneeze_toolkit/CatSneeze_toolkit/_ti_sdk/simplelink_cc13xx_cc26xx_sdk_8_32_00_07/source/ti/drivers/rf/lib/gcc/m4f/rf_multiMode_cc13x2.a(RFCC26X2_multiMode.c.cc13x2.gcc.o)
 .text.RF_ratDisableChannel
                0x0000000000000000       0x78 /home/runner/work/CatSneeze_toolkit/CatSneeze_toolkit/_ti_sdk/simplelink_cc13xx_cc26xx_sdk_8_32_00_07/source/ti/drivers/rf/lib/gcc/m4f/rf_multiMode_cc13x2.a(RFCC26X2_multiMode.c.cc13x2.gcc.o)
 .text.RF_control
                0x0000000000000000       0xec /home/runner/work/CatSneeze_toolkit/CatSneeze_toolkit/_ti_sdk/simplelink_cc13xx_cc26xx_sdk_8_32_00_07/source/ti/drivers/rf/lib/gcc/m4f/rf_multiMode_cc13x2.a(RFCC26X2_multiMode.c.cc13x2.gcc.o)
 .text.RF_requestAccess
                0x0000000000000000       0xa0 /home/runner/work/CatSneeze_toolkit/CatSneeze_toolkit/_ti_sdk/simplelink_cc13xx_cc26xx_sdk_8_32_00_07/source/ti/drivers/rf/lib/gcc/m4f/rf_multiMode_cc13x2.a(RFCC26X2_multiMode.c.cc13x2.gcc.o)
 .text.RF_setTxPower
                0x0000000000000000       0x22 /home/runner/work/CatSneeze_toolkit/CatSneeze_toolkit/_ti_sdk/simplelink_cc13xx_cc26xx_sdk_8_32_00_07/source/ti/drivers/rf/lib/gcc/m4f/rf_multiMode_cc13x2.a(RFCC26X2_multiMode.c.cc13x2.gcc.o)
 .text.RF_getTxPower
                0x0000000000000000       0x70 /home/runner/work/CatSneeze_toolkit/CatSneeze_toolkit/_ti_sdk/simplelink_cc13xx_cc26xx_sdk_8_32_00_07/source/ti/drivers/rf/lib/gcc/m4f/rf_multiMode_cc13x2.a(RFCC26X2_multiMode.c.cc13x2.gcc.o)
 .text.RF_TxPowerTable_findPowerLevel
                0x0000000000000000       0x40 /home/runner/work/CatSneeze_toolkit/CatSneeze_toolkit/_ti_sdk/simplelink_cc13xx_cc26xx_sdk_8_32_00_07/source/ti/drivers/rf/lib/gcc/m4f/rf_multiMode_cc13x2.a(RFCC26X2_multiMode.c.cc13x2.gcc.o)
 .text.RF_TxPowerTable_findValue
                0x0000000000000000       0x60 /home/runner/work/CatSneeze_toolkit/CatSneeze_toolkit/_ti_sdk/simplelink_cc13xx_cc26xx_sdk_8_32_00_07/source/ti/drivers/rf/lib/gcc/m4f/rf_multiMode_cc13x2.a(RFCC26X2_multiMode.c.cc13x2.gcc.o)
 .text.RF_enableHPOSCTemperatureCompensation
                0x0000000000000000       0x54 /home/runner/work/CatSneeze_toolkit/CatSneeze_toolkit/_ti_sdk/simplelink_cc13xx_cc26xx_sdk_8_32_00_07/source/ti/drivers/rf/lib/gcc/m4f/rf_multiMode_cc13x2.a(RFCC26X2_multiMode.c.cc13x2.gcc.o)
 .bss.pfnTemperatureUnregisterNotify
                0x0000000000000000        0x4 /home/runner/work/CatSneeze_toolkit/CatSneeze_toolkit/_ti_sdk/simplelink_cc13xx_cc26xx_sdk_8_32_00_07/source/ti/drivers/rf/lib/gcc/m4f/rf_multiMode_cc13x2.a(RFCC26X2_multiMode.c.cc13x2.gcc.o)
 .bss.RF_hposcRfCompNotifyObj
                0x0000000000000000       0x18 /home/runner/work/CatSneeze_toolkit/CatSneeze_toolkit/_ti_sdk/simplelink_cc13xx_cc26xx_sdk_8_32_00_07/source/ti/drivers/rf/lib/gcc/m4f/rf_multiMode_cc13x2.a(RFCC26X2_multiMode.c.cc13x2.gcc.o)
 .bss.RF_currentHposcFreqOffset
                0x0000000000000000        0x4 /home/runner/work/CatSneeze_toolkit/CatSneeze_toolkit/_ti_sdk/simplelink_cc13xx_cc26xx_sdk_8_32_00_07/source/ti/drivers/rf/lib/gcc/m4f/rf_multiMode_cc13x2.a(RFCC26X2_multiMode.c.cc13x2.gcc.o)
 .text          0x0000000000000000        0x0 /home/runner/work/CatSneeze_toolkit/CatSneeze_toolkit/_ti_sdk/simplelink_cc13xx_cc26xx_sdk_8_32_00_07/source/ti/drivers/rf/lib/gcc/m4f/rf_multiMode_cc13x2.a(rfc.c.cc13x2.gcc.o)
 .data          0x0000000000000000        0x0 /home/runner/work/CatSneeze_toolkit/CatSneeze_toolkit/_ti_sdk/simplelink_cc13xx_cc26xx_sdk_8_32_00_07/source/ti/drivers/rf/lib/gcc/m4f/rf_multiMode_cc13x2.a(rfc.c.cc13x2.gcc.o)
 .bss           0x0000000000000000        0x0 /home/runner/work/CatSneeze_toolkit/CatSneeze_toolkit/_ti_sdk/simplelink_cc13xx_cc26xx_sdk_8_32_00_07/source/ti/drivers/rf/lib/gcc/m4f/rf_multiMode_cc13x2.a(rfc.c.cc13x2.gcc.o)
 .text          0x0000000000000000        0x0 /home/runner/work/CatSneeze_toolkit/CatSneeze_toolkit/_ti_sdk/simplelink_cc13xx_cc26xx_sdk_8_32_00_07/source/ti/drivers/rf/lib/gcc/m4f/rf_multiMode_cc13x2.a(rf_patch_cpe_prop.c.cc13x2.gcc.o)
 .data          0x0000000000000000        0x0 /home/runner/work/CatSneeze_toolkit/CatSneeze_toolkit/_ti_sdk/simplelink_cc13xx_cc26xx_sdk_8_32_00_07/source/ti/drivers/rf/lib/gcc/m4f/rf_multiMode_cc13x2.a(rf_patch_cpe_prop.c.cc13x2.gcc.o)
 .bss           0x0000000000000000        0x0 /home/runner/work/CatSneeze_toolkit/CatSneeze_toolkit/_ti_sdk/simplelink_cc13xx_cc26xx_sdk_8_32_00_07/source/ti/drivers/rf/lib/gcc/m4f/rf_multiMode_cc13x2.a(rf_patch_cpe_prop.c.cc13x2.gcc.o)
 .text.refreshPropPatch
                0x0000000000000000        0x4 /home/runner/work/CatSneeze_toolkit/CatSneeze_toolkit/_ti_sdk/simplelink_cc13xx_cc26xx_sdk_8_32_00_07/source/ti/drivers/rf/lib/gcc/m4f/rf_multiMode_cc13x2.a(rf_patch_cpe_prop.c.cc13x2.gcc.o)
 .text.cleanPropPatch
                0x0000000000000000        0xc /home/runner/work/CatSneeze_toolkit/CatSneeze_toolkit/_ti_sdk/simplelink_cc13xx_cc26xx_sdk_8_32_00_07/source/ti/drivers/rf/lib/gcc/m4f/rf_multiMode_cc13x2.a(rf_patch_cpe_prop.c.cc13x2.gcc.o)
 .text          0x0000000000000000        0x0 /home/runner/work/CatSneeze_toolkit/CatSneeze_toolkit/_ti_sdk/simplelink_cc13xx_cc26xx_sdk_8_32_00_07/source/ti/drivers/lib/gcc/m4f/drivers_cc13x2x7.a(List.c.obj)
 .data          0x0000000000000000        0x0 /home/runner/work/CatSneeze_toolkit/CatSneeze_toolkit/_ti_sdk/simplelink_cc13xx_cc26xx_sdk_8_32_00_07/source/ti/drivers/lib/gcc/m4f/drivers_cc13x2x7.a(List.c.obj)
 .bss           0x0000000000000000        0x0 /home/runner/work/CatSneeze_toolkit/CatSneeze_toolkit/_ti_sdk/simplelink_cc13xx_cc26xx_sdk_8_32_00_07/source/ti/drivers/lib/gcc/m4f/drivers_cc13x2x7.a(List.c.obj)
 .text          0x0000000000000000        0x0 /home/runner/work/CatSneeze_toolkit/CatSneeze_toolkit/_ti_sdk/simplelink_cc13xx_cc26xx_sdk_8_32_00_07/source/ti/drivers/lib/gcc/m4f/drivers_cc13x2x7.a(PowerCC26X2.c.obj)
 .data          0x0000000000000000        0x0 /home/runner/work/CatSneeze_toolkit/CatSneeze_toolkit/_ti_sdk/simplelink_cc13xx_cc26xx_sdk_8_32_00_07/source/ti/drivers/lib/gcc/m4f/drivers_cc13x2x7.a(PowerCC26X2.c.obj)
 .bss           0x0000000000000000        0x0 /home/runner/work/CatSneeze_toolkit/CatSneeze_toolkit/_ti_sdk/simplelink_cc13xx_cc26xx_sdk_8_32_00_07/source/ti/drivers/lib/gcc/m4f/drivers_cc13x2x7.a(PowerCC26X2.c.obj)
 .text.hposcRtcCompensateFxn
                0x0000000000000000       0x34 /home/runner/work/CatSneeze_toolkit/CatSneeze_toolkit/_ti_sdk/simplelink_cc13xx_cc26xx_sdk_8_32_00_07/source/ti/drivers/lib/gcc/m4f/drivers_cc13x2x7.a(PowerCC26X2.c.obj)
 .text.xosclfRtcCompensateFxn
                0x0000000000000000       0x54 /home/runner/work/CatSneeze_toolkit/CatSneeze_toolkit/_ti_sdk/simplelink_cc13xx_cc26xx_sdk_8_32_00_07/source/ti/drivers/lib/gcc/m4f/drivers_cc13x2x7.a(PowerCC26X2.c.obj)
 .text.Power_getDependencyCount
                0x0000000000000000       0x10 /home/runner/work/CatSneeze_toolkit/CatSneeze_toolkit/_ti_sdk/simplelink_cc13xx_cc26xx_sdk_8_32_00_07/source/ti/drivers/lib/gcc/m4f/drivers_cc13x2x7.a(PowerCC26X2.c.obj)
 .text.Power_getConstraintCount
                0x0000000000000000       0x18 /home/runner/work/CatSneeze_toolkit/CatSneeze_toolkit/_ti_sdk/simplelink_cc13xx_cc26xx_sdk_8_32_00_07/source/ti/drivers/lib/gcc/m4f/drivers_cc13x2x7.a(PowerCC26X2.c.obj)
 .text.Power_getTransitionState
                0x0000000000000000        0xc /home/runner/work/CatSneeze_toolkit/CatSneeze_toolkit/_ti_sdk/simplelink_cc13xx_cc26xx_sdk_8_32_00_07/source/ti/drivers/lib/gcc/m4f/drivers_cc13x2x7.a(PowerCC26X2.c.obj)
 .text.Power_setPolicy
                0x0000000000000000        0xc /home/runner/work/CatSneeze_toolkit/CatSneeze_toolkit/_ti_sdk/simplelink_cc13xx_cc26xx_sdk_8_32_00_07/source/ti/drivers/lib/gcc/m4f/drivers_cc13x2x7.a(PowerCC26X2.c.obj)
 .text.Power_shutdown
                0x0000000000000000       0x84 /home/runner/work/CatSneeze_toolkit/CatSneeze_toolkit/_ti_sdk/simplelink_cc13xx_cc26xx_sdk_8_32_00_07/source/ti/drivers/lib/gcc/m4f/drivers_cc13x2x7.a(PowerCC26X2.c.obj)
 .text.Power_unregisterNotify
                0x0000000000000000       0x20 /home/runner/work/CatSneeze_toolkit/CatSneeze_toolkit/_ti_sdk/simplelink_cc13xx_cc26xx_sdk_8_32_00_07/source/ti/drivers/lib/gcc/m4f/drivers_cc13x2x7.a(PowerCC26X2.c.obj)
 .text.Power_reset
                0x0000000000000000        0x4 /home/runner/work/CatSneeze_toolkit/CatSneeze_toolkit/_ti_sdk/simplelink_cc13xx_cc26xx_sdk_8_32_00_07/source/ti/drivers/lib/gcc/m4f/drivers_cc13x2x7.a(PowerCC26X2.c.obj)
 .text.PowerCC26X2_enableHposcRtcCompensation
                0x0000000000000000       0x4c /home/runner/work/CatSneeze_toolkit/CatSneeze_toolkit/_ti_sdk/simplelink_cc13xx_cc26xx_sdk_8_32_00_07/source/ti/drivers/lib/gcc/m4f/drivers_cc13x2x7.a(PowerCC26X2.c.obj)
 .text.PowerCC26X2_enableXoscLfRtcCompensation
                0x0000000000000000       0x78 /home/runner/work/CatSneeze_toolkit/CatSneeze_toolkit/_ti_sdk/simplelink_cc13xx_cc26xx_sdk_8_32_00_07/source/ti/drivers/lib/gcc/m4f/drivers_cc13x2x7.a(PowerCC26X2.c.obj)
 .text.PowerCC26XX_doWFI
                0x0000000000000000        0x4 /home/runner/work/CatSneeze_toolkit/CatSneeze_toolkit/_ti_sdk/simplelink_cc13xx_cc26xx_sdk_8_32_00_07/source/ti/drivers/lib/gcc/m4f/drivers_cc13x2x7.a(PowerCC26X2.c.obj)
 .text.PowerCC26XX_getClockHandle
                0x0000000000000000        0x8 /home/runner/work/CatSneeze_toolkit/CatSneeze_toolkit/_ti_sdk/simplelink_cc13xx_cc26xx_sdk_8_32_00_07/source/ti/drivers/lib/gcc/m4f/drivers_cc13x2x7.a(PowerCC26X2.c.obj)
 .text.PowerCC26XX_noCalibrate
                0x0000000000000000        0x4 /home/runner/work/CatSneeze_toolkit/CatSneeze_toolkit/_ti_sdk/simplelink_cc13xx_cc26xx_sdk_8_32_00_07/source/ti/drivers/lib/gcc/m4f/drivers_cc13x2x7.a(PowerCC26X2.c.obj)
 .text.PowerCC26XX_getXoscStartupTime
                0x0000000000000000        0x4 /home/runner/work/CatSneeze_toolkit/CatSneeze_toolkit/_ti_sdk/simplelink_cc13xx_cc26xx_sdk_8_32_00_07/source/ti/drivers/lib/gcc/m4f/drivers_cc13x2x7.a(PowerCC26X2.c.obj)
 .text.PowerCC26XX_injectCalibration
                0x0000000000000000       0x1c /home/runner/work/CatSneeze_toolkit/CatSneeze_toolkit/_ti_sdk/simplelink_cc13xx_cc26xx_sdk_8_32_00_07/source/ti/drivers/lib/gcc/m4f/drivers_cc13x2x7.a(PowerCC26X2.c.obj)
 .text.PowerCC26X2_getResetReason
                0x0000000000000000        0xc /home/runner/work/CatSneeze_toolkit/CatSneeze_toolkit/_ti_sdk/simplelink_cc13xx_cc26xx_sdk_8_32_00_07/source/ti/drivers/lib/gcc/m4f/drivers_cc13x2x7.a(PowerCC26X2.c.obj)
 .bss.PowerCC26X2_xosclfRtcCompNotifyObj
                0x0000000000000000       0x18 /home/runner/work/CatSneeze_toolkit/CatSneeze_toolkit/_ti_sdk/simplelink_cc13xx_cc26xx_sdk_8_32_00_07/source/ti/drivers/lib/gcc/m4f/drivers_cc13x2x7.a(PowerCC26X2.c.obj)
 .bss.PowerCC26X2_hposcRtcCompNotifyObj
                0x0000000000000000       0x18 /home/runner/work/CatSneeze_toolkit/CatSneeze_toolkit/_ti_sdk/simplelink_cc13xx_cc26xx_sdk_8_32_00_07/source/ti/drivers/lib/gcc/m4f/drivers_cc13x2x7.a(PowerCC26X2.c.obj)
 .text          0x0000000000000000        0x0 /home/runner/work/CatSneeze_toolkit/CatSneeze_toolkit/_ti_sdk/simplelink_cc13xx_cc26xx_sdk_8_32_00_07/source/ti/drivers/lib/gcc/m4f/drivers_cc13x2x7.a(PowerCC26X2_calibrateRCOSC.c.obj)
 .data          0x0000000000000000        0x0 /home/runner/work/CatSneeze_toolkit/CatSneeze_toolkit/_ti_sdk/simplelink_cc13xx_cc26xx_sdk_8_32_00_07/source/ti/drivers/lib/gcc/m4f/drivers_cc13x2x7.a(PowerCC26X2_calibrateRCOSC.c.obj)
 .bss           0x0000000000000000        0x0 /home/runner/work/CatSneeze_toolkit/CatSneeze_toolkit/_ti_sdk/simplelink_cc13xx_cc26xx_sdk_8_32_00_07/source/ti/drivers/lib/gcc/m4f/drivers_cc13x2x7.a(PowerCC26X2_calibrateRCOSC.c.obj)
 .text          0x0000000000000000        0x0 /home/runner/work/CatSneeze_toolkit/CatSneeze_toolkit/_ti_sdk/simplelink_cc13xx_cc26xx_sdk_8_32_00_07/source/ti/drivers/lib/gcc/m4f/drivers_cc13x2x7.a(TemperatureCC26X2.c.obj)
 .data          0x0000000000000000        0x0 /home/runner/work/CatSneeze_toolkit/CatSneeze_toolkit/_ti_sdk/simplelink_cc13xx_cc26xx_sdk_8_32_00_07/source/ti/drivers/lib/gcc/m4f/drivers_cc13x2x7.a(TemperatureCC26X2.c.obj)
 .bss           0x0000000000000000        0x0 /home/runner/work/CatSneeze_toolkit/CatSneeze_toolkit/_ti_sdk/simplelink_cc13xx_cc26xx_sdk_8_32_00_07/source/ti/drivers/lib/gcc/m4f/drivers_cc13x2x7.a(TemperatureCC26X2.c.obj)
 .text.updateThresholds
                0x0000000000000000       0xe0 /home/runner/work/CatSneeze_toolkit/CatSneeze_toolkit/_ti_sdk/simplelink_cc13xx_cc26xx_sdk_8_32_00_07/source/ti/drivers/lib/gcc/m4f/drivers_cc13x2x7.a(TemperatureCC26X2.c.obj)
 .text.temperatureHwiFxn
                0x0000000000000000       0xf4 /home/runner/work/CatSneeze_toolkit/CatSneeze_toolkit/_ti_sdk/simplelink_cc13xx_cc26xx_sdk_8_32_00_07/source/ti/drivers/lib/gcc/m4f/drivers_cc13x2x7.a(TemperatureCC26X2.c.obj)
 .text.Temperature_init
                0x0000000000000000       0x94 /home/runner/work/CatSneeze_toolkit/CatSneeze_toolkit/_ti_sdk/simplelink_cc13xx_cc26xx_sdk_8_32_00_07/source/ti/drivers/lib/gcc/m4f/drivers_cc13x2x7.a(TemperatureCC26X2.c.obj)
 .text.Temperature_getTemperature
                0x0000000000000000       0x14 /home/runner/work/CatSneeze_toolkit/CatSneeze_toolkit/_ti_sdk/simplelink_cc13xx_cc26xx_sdk_8_32_00_07/source/ti/drivers/lib/gcc/m4f/drivers_cc13x2x7.a(TemperatureCC26X2.c.obj)
 .text.Temperature_registerNotifyHigh
                0x0000000000000000      0x124 /home/runner/work/CatSneeze_toolkit/CatSneeze_toolkit/_ti_sdk/simplelink_cc13xx_cc26xx_sdk_8_32_00_07/source/ti/drivers/lib/gcc/m4f/drivers_cc13x2x7.a(TemperatureCC26X2.c.obj)
 .text.Temperature_registerNotifyLow
                0x0000000000000000      0x138 /home/runner/work/CatSneeze_toolkit/CatSneeze_toolkit/_ti_sdk/simplelink_cc13xx_cc26xx_sdk_8_32_00_07/source/ti/drivers/lib/gcc/m4f/drivers_cc13x2x7.a(TemperatureCC26X2.c.obj)
 .text.Temperature_registerNotifyRange
                0x0000000000000000      0x120 /home/runner/work/CatSneeze_toolkit/CatSneeze_toolkit/_ti_sdk/simplelink_cc13xx_cc26xx_sdk_8_32_00_07/source/ti/drivers/lib/gcc/m4f/drivers_cc13x2x7.a(TemperatureCC26X2.c.obj)
 .text.Temperature_unregisterNotify
                0x0000000000000000       0x60 /home/runner/work/CatSneeze_toolkit/CatSneeze_toolkit/_ti_sdk/simplelink_cc13xx_cc26xx_sdk_8_32_00_07/source/ti/drivers/lib/gcc/m4f/drivers_cc13x2x7.a(TemperatureCC26X2.c.obj)
 .bss.isInitialized
                0x0000000000000000        0x1 /home/runner/work/CatSneeze_toolkit/CatSneeze_toolkit/_ti_sdk/simplelink_cc13xx_cc26xx_sdk_8_32_00_07/source/ti/drivers/lib/gcc/m4f/drivers_cc13x2x7.a(TemperatureCC26X2.c.obj)
 .data.currentThresholdLow
                0x0000000000000000        0x2 /home/runner/work/CatSneeze_toolkit/CatSneeze_toolkit/_ti_sdk/simplelink_cc13xx_cc26xx_sdk_8_32_00_07/source/ti/drivers/lib/gcc/m4f/drivers_cc13x2x7.a(TemperatureCC26X2.c.obj)
 .data.currentThresholdHigh
                0x0000000000000000        0x2 /home/runner/work/CatSneeze_toolkit/CatSneeze_toolkit/_ti_sdk/simplelink_cc13xx_cc26xx_sdk_8_32_00_07/source/ti/drivers/lib/gcc/m4f/drivers_cc13x2x7.a(TemperatureCC26X2.c.obj)
 .bss.notificationList
                0x0000000000000000        0x8 /home/runner/work/CatSneeze_toolkit/CatSneeze_toolkit/_ti_sdk/simplelink_cc13xx_cc26xx_sdk_8_32_00_07/source/ti/drivers/lib/gcc/m4f/drivers_cc13x2x7.a(TemperatureCC26X2.c.obj)
 .bss.batmonHwi
                0x0000000000000000       0x1c /home/runner/work/CatSneeze_toolkit/CatSneeze_toolkit/_ti_sdk/simplelink_cc13xx_cc26xx_sdk_8_32_00_07/source/ti/drivers/lib/gcc/m4f/drivers_cc13x2x7.a(TemperatureCC26X2.c.obj)
 .debug_info    0x0000000000000000     0x1322 /home/runner/work/CatSneeze_toolkit/CatSneeze_toolkit/_ti_sdk/simplelink_cc13xx_cc26xx_sdk_8_32_00_07/source/ti/drivers/lib/gcc/m4f/drivers_cc13x2x7.a(TemperatureCC26X2.c.obj)
 .debug_abbrev  0x0000000000000000      0x465 /home/runner/work/CatSneeze_toolkit/CatSneeze_toolkit/_ti_sdk/simplelink_cc13xx_cc26xx_sdk_8_32_00_07/source/ti/drivers/lib/gcc/m4f/drivers_cc13x2x7.a(TemperatureCC26X2.c.obj)
 .debug_loclists
                0x0000000000000000     0x13fa /home/runner/work/CatSneeze_toolkit/CatSneeze_toolkit/_ti_sdk/simplelink_cc13xx_cc26xx_sdk_8_32_00_07/source/ti/drivers/lib/gcc/m4f/drivers_cc13x2x7.a(TemperatureCC26X2.c.obj)
 .debug_aranges
                0x0000000000000000       0x58 /home/runner/work/CatSneeze_toolkit/CatSneeze_toolkit/_ti_sdk/simplelink_cc13xx_cc26xx_sdk_8_32_00_07/source/ti/drivers/lib/gcc/m4f/drivers_cc13x2x7.a(TemperatureCC26X2.c.obj)
 .debug_rnglists
                0x0000000000000000      0x32c /home/runner/work/CatSneeze_toolkit/CatSneeze_toolkit/_ti_sdk/simplelink_cc13xx_cc26xx_sdk_8_32_00_07/source/ti/drivers/lib/gcc/m4f/drivers_cc13x2x7.a(TemperatureCC26X2.c.obj)
 .debug_line    0x0000000000000000     0x1320 /home/runner/work/CatSneeze_toolkit/CatSneeze_toolkit/_ti_sdk/simplelink_cc13xx_cc26xx_sdk_8_32_00_07/source/ti/drivers/lib/gcc/m4f/drivers_cc13x2x7.a(TemperatureCC26X2.c.obj)
 .debug_str     0x0000000000000000      0x7a9 /home/runner/work/CatSneeze_toolkit/CatSneeze_toolkit/_ti_sdk/simplelink_cc13xx_cc26xx_sdk_8_32_00_07/source/ti/drivers/lib/gcc/m4f/drivers_cc13x2x7.a(TemperatureCC26X2.c.obj)
 .comment       0x0000000000000000       0x46 /home/runner/work/CatSneeze_toolkit/CatSneeze_toolkit/_ti_sdk/simplelink_cc13xx_cc26xx_sdk_8_32_00_07/source/ti/drivers/lib/gcc/m4f/drivers_cc13x2x7.a(TemperatureCC26X2.c.obj)
 .debug_frame   0x0000000000000000      0x134 /home/runner/work/CatSneeze_toolkit/CatSneeze_toolkit/_ti_sdk/simplelink_cc13xx_cc26xx_sdk_8_32_00_07/source/ti/drivers/lib/gcc/m4f/drivers_cc13x2x7.a(TemperatureCC26X2.c.obj)
 .ARM.attributes
                0x0000000000000000       0x34 /home/runner/work/CatSneeze_toolkit/CatSneeze_toolkit/_ti_sdk/simplelink_cc13xx_cc26xx_sdk_8_32_00_07/source/ti/drivers/lib/gcc/m4f/drivers_cc13x2x7.a(TemperatureCC26X2.c.obj)
 .text          0x0000000000000000        0x0 /home/runner/work/CatSneeze_toolkit/CatSneeze_toolkit/_ti_sdk/simplelink_cc13xx_cc26xx_sdk_8_32_00_07/source/ti/drivers/lib/gcc/m4f/drivers_cc13x2x7.a(UART2.c.obj)
 .data          0x0000000000000000        0x0 /home/runner/work/CatSneeze_toolkit/CatSneeze_toolkit/_ti_sdk/simplelink_cc13xx_cc26xx_sdk_8_32_00_07/source/ti/drivers/lib/gcc/m4f/drivers_cc13x2x7.a(UART2.c.obj)
 .bss           0x0000000000000000        0x0 /home/runner/work/CatSneeze_toolkit/CatSneeze_toolkit/_ti_sdk/simplelink_cc13xx_cc26xx_sdk_8_32_00_07/source/ti/drivers/lib/gcc/m4f/drivers_cc13x2x7.a(UART2.c.obj)
 .text.UART2_getRxCount
                0x0000000000000000       0x3c /home/runner/work/CatSneeze_toolkit/CatSneeze_toolkit/_ti_sdk/simplelink_cc13xx_cc26xx_sdk_8_32_00_07/source/ti/drivers/lib/gcc/m4f/drivers_cc13x2x7.a(UART2.c.obj)
 .text.UART2_readCancel
                0x0000000000000000       0x60 /home/runner/work/CatSneeze_toolkit/CatSneeze_toolkit/_ti_sdk/simplelink_cc13xx_cc26xx_sdk_8_32_00_07/source/ti/drivers/lib/gcc/m4f/drivers_cc13x2x7.a(UART2.c.obj)
 .text.UART2_rxDisable
                0x0000000000000000       0x40 /home/runner/work/CatSneeze_toolkit/CatSneeze_toolkit/_ti_sdk/simplelink_cc13xx_cc26xx_sdk_8_32_00_07/source/ti/drivers/lib/gcc/m4f/drivers_cc13x2x7.a(UART2.c.obj)
 .text.UART2_writeCancel
                0x0000000000000000       0xb0 /home/runner/work/CatSneeze_toolkit/CatSneeze_toolkit/_ti_sdk/simplelink_cc13xx_cc26xx_sdk_8_32_00_07/source/ti/drivers/lib/gcc/m4f/drivers_cc13x2x7.a(UART2.c.obj)
 .text          0x0000000000000000        0x0 /home/runner/work/CatSneeze_toolkit/CatSneeze_toolkit/_ti_sdk/simplelink_cc13xx_cc26xx_sdk_8_32_00_07/source/ti/drivers/lib/gcc/m4f/drivers_cc13x2x7.a(UART2CC26X2.c.obj)
 .data          0x0000000000000000        0x0 /home/runner/work/CatSneeze_toolkit/CatSneeze_toolkit/_ti_sdk/simplelink_cc13xx_cc26xx_sdk_8_32_00_07/source/ti/drivers/lib/gcc/m4f/drivers_cc13x2x7.a(UART2CC26X2.c.obj)
 .bss           0x0000000000000000        0x0 /home/runner/work/CatSneeze_toolkit/CatSneeze_toolkit/_ti_sdk/simplelink_cc13xx_cc26xx_sdk_8_32_00_07/source/ti/drivers/lib/gcc/m4f/drivers_cc13x2x7.a(UART2CC26X2.c.obj)
 .text.UART2_close
                0x0000000000000000       0x9c /home/runner/work/CatSneeze_toolkit/CatSneeze_toolkit/_ti_sdk/simplelink_cc13xx_cc26xx_sdk_8_32_00_07/source/ti/drivers/lib/gcc/m4f/drivers_cc13x2x7.a(UART2CC26X2.c.obj)
 .text.UART2Support_disableRx
                0x0000000000000000       0x20 /home/runner/work/CatSneeze_toolkit/CatSneeze_toolkit/_ti_sdk/simplelink_cc13xx_cc26xx_sdk_8_32_00_07/source/ti/drivers/lib/gcc/m4f/drivers_cc13x2x7.a(UART2CC26X2.c.obj)
 .text.UART2_flushRx
                0x0000000000000000       0x58 /home/runner/work/CatSneeze_toolkit/CatSneeze_toolkit/_ti_sdk/simplelink_cc13xx_cc26xx_sdk_8_32_00_07/source/ti/drivers/lib/gcc/m4f/drivers_cc13x2x7.a(UART2CC26X2.c.obj)
 .text.UART2Support_powerRelConstraint
                0x0000000000000000       0x2c /home/runner/work/CatSneeze_toolkit/CatSneeze_toolkit/_ti_sdk/simplelink_cc13xx_cc26xx_sdk_8_32_00_07/source/ti/drivers/lib/gcc/m4f/drivers_cc13x2x7.a(UART2CC26X2.c.obj)
 .text.UART2Support_rxStatus2ErrorCode
                0x0000000000000000       0x10 /home/runner/work/CatSneeze_toolkit/CatSneeze_toolkit/_ti_sdk/simplelink_cc13xx_cc26xx_sdk_8_32_00_07/source/ti/drivers/lib/gcc/m4f/drivers_cc13x2x7.a(UART2CC26X2.c.obj)
 .text.UART2Support_uartRxError
                0x0000000000000000       0x20 /home/runner/work/CatSneeze_toolkit/CatSneeze_toolkit/_ti_sdk/simplelink_cc13xx_cc26xx_sdk_8_32_00_07/source/ti/drivers/lib/gcc/m4f/drivers_cc13x2x7.a(UART2CC26X2.c.obj)
 .text          0x0000000000000000        0x0 /home/runner/work/CatSneeze_toolkit/CatSneeze_toolkit/_ti_sdk/simplelink_cc13xx_cc26xx_sdk_8_32_00_07/source/ti/drivers/lib/gcc/m4f/drivers_cc13x2x7.a(PowerCC26X2_calibrateRCOSC_helpers.c.obj)
 .data          0x0000000000000000        0x0 /home/runner/work/CatSneeze_toolkit/CatSneeze_toolkit/_ti_sdk/simplelink_cc13xx_cc26xx_sdk_8_32_00_07/source/ti/drivers/lib/gcc/m4f/drivers_cc13x2x7.a(PowerCC26X2_calibrateRCOSC_helpers.c.obj)
 .bss           0x0000000000000000        0x0 /home/runner/work/CatSneeze_toolkit/CatSneeze_toolkit/_ti_sdk/simplelink_cc13xx_cc26xx_sdk_8_32_00_07/source/ti/drivers/lib/gcc/m4f/drivers_cc13x2x7.a(PowerCC26X2_calibrateRCOSC_helpers.c.obj)
 .text          0x0000000000000000        0x0 /home/runner/work/CatSneeze_toolkit/CatSneeze_toolkit/_ti_sdk/simplelink_cc13xx_cc26xx_sdk_8_32_00_07/source/ti/drivers/lib/gcc/m4f/drivers_cc13x2x7.a(PowerCC26X2_helpers.c.obj)
 .data          0x0000000000000000        0x0 /home/runner/work/CatSneeze_toolkit/CatSneeze_toolkit/_ti_sdk/simplelink_cc13xx_cc26xx_sdk_8_32_00_07/source/ti/drivers/lib/gcc/m4f/drivers_cc13x2x7.a(PowerCC26X2_helpers.c.obj)
 .bss           0x0000000000000000        0x0 /home/runner/work/CatSneeze_toolkit/CatSneeze_toolkit/_ti_sdk/simplelink_cc13xx_cc26xx_sdk_8_32_00_07/source/ti/drivers/lib/gcc/m4f/drivers_cc13x2x7.a(PowerCC26X2_helpers.c.obj)
 .text.PowerCC26X2_pmctlDisableJtag
                0x0000000000000000        0xc /home/runner/work/CatSneeze_toolkit/CatSneeze_toolkit/_ti_sdk/simplelink_cc13xx_cc26xx_sdk_8_32_00_07/source/ti/drivers/lib/gcc/m4f/drivers_cc13x2x7.a(PowerCC26X2_helpers.c.obj)
 .text.PowerCC26X2_sysctrlShutdownWithAbort
                0x0000000000000000        0x4 /home/runner/work/CatSneeze_toolkit/CatSneeze_toolkit/_ti_sdk/simplelink_cc13xx_cc26xx_sdk_8_32_00_07/source/ti/drivers/lib/gcc/m4f/drivers_cc13x2x7.a(PowerCC26X2_helpers.c.obj)
 .text.PowerCC26X2_oscIsHPOSCEnabledWithHfDerivedLfClock
                0x0000000000000000       0x1c /home/runner/work/CatSneeze_toolkit/CatSneeze_toolkit/_ti_sdk/simplelink_cc13xx_cc26xx_sdk_8_32_00_07/source/ti/drivers/lib/gcc/m4f/drivers_cc13x2x7.a(PowerCC26X2_helpers.c.obj)
 .text.PowerCC26X2_sysCtrlVoltageConditionalControl
                0x0000000000000000        0xc /home/runner/work/CatSneeze_toolkit/CatSneeze_toolkit/_ti_sdk/simplelink_cc13xx_cc26xx_sdk_8_32_00_07/source/ti/drivers/lib/gcc/m4f/drivers_cc13x2x7.a(PowerCC26X2_helpers.c.obj)
 .text.PowerCC26X2_setPeriphDependency
                0x0000000000000000       0x3c /home/runner/work/CatSneeze_toolkit/CatSneeze_toolkit/_ti_sdk/simplelink_cc13xx_cc26xx_sdk_8_32_00_07/source/ti/drivers/lib/gcc/m4f/drivers_cc13x2x7.a(PowerCC26X2_helpers.c.obj)
 .text.PowerCC26X2_releasePeriphDependency
                0x0000000000000000       0x3c /home/runner/work/CatSneeze_toolkit/CatSneeze_toolkit/_ti_sdk/simplelink_cc13xx_cc26xx_sdk_8_32_00_07/source/ti/drivers/lib/gcc/m4f/drivers_cc13x2x7.a(PowerCC26X2_helpers.c.obj)
 .text.PowerCC26X2_sysCtrlReset
                0x0000000000000000       0x14 /home/runner/work/CatSneeze_toolkit/CatSneeze_toolkit/_ti_sdk/simplelink_cc13xx_cc26xx_sdk_8_32_00_07/source/ti/drivers/lib/gcc/m4f/drivers_cc13x2x7.a(PowerCC26X2_helpers.c.obj)
 .text          0x0000000000000000        0x0 /home/runner/work/CatSneeze_toolkit/CatSneeze_toolkit/_ti_sdk/simplelink_cc13xx_cc26xx_sdk_8_32_00_07/source/ti/drivers/lib/gcc/m4f/drivers_cc13x2x7.a(RingBuf.c.obj)
 .data          0x0000000000000000        0x0 /home/runner/work/CatSneeze_toolkit/CatSneeze_toolkit/_ti_sdk/simplelink_cc13xx_cc26xx_sdk_8_32_00_07/source/ti/drivers/lib/gcc/m4f/drivers_cc13x2x7.a(RingBuf.c.obj)
 .bss           0x0000000000000000        0x0 /home/runner/work/CatSneeze_toolkit/CatSneeze_toolkit/_ti_sdk/simplelink_cc13xx_cc26xx_sdk_8_32_00_07/source/ti/drivers/lib/gcc/m4f/drivers_cc13x2x7.a(RingBuf.c.obj)
 .text.RingBuf_get
                0x0000000000000000       0x40 /home/runner/work/CatSneeze_toolkit/CatSneeze_toolkit/_ti_sdk/simplelink_cc13xx_cc26xx_sdk_8_32_00_07/source/ti/drivers/lib/gcc/m4f/drivers_cc13x2x7.a(RingBuf.c.obj)
 .text.RingBuf_getMaxCount
                0x0000000000000000        0x4 /home/runner/work/CatSneeze_toolkit/CatSneeze_toolkit/_ti_sdk/simplelink_cc13xx_cc26xx_sdk_8_32_00_07/source/ti/drivers/lib/gcc/m4f/drivers_cc13x2x7.a(RingBuf.c.obj)
 .text.RingBuf_getn
                0x0000000000000000       0x48 /home/runner/work/CatSneeze_toolkit/CatSneeze_toolkit/_ti_sdk/simplelink_cc13xx_cc26xx_sdk_8_32_00_07/source/ti/drivers/lib/gcc/m4f/drivers_cc13x2x7.a(RingBuf.c.obj)
 .text.RingBuf_flush
                0x0000000000000000       0x1c /home/runner/work/CatSneeze_toolkit/CatSneeze_toolkit/_ti_sdk/simplelink_cc13xx_cc26xx_sdk_8_32_00_07/source/ti/drivers/lib/gcc/m4f/drivers_cc13x2x7.a(RingBuf.c.obj)
 .text.RingBuf_isFull
                0x0000000000000000       0x10 /home/runner/work/CatSneeze_toolkit/CatSneeze_toolkit/_ti_sdk/simplelink_cc13xx_cc26xx_sdk_8_32_00_07/source/ti/drivers/lib/gcc/m4f/drivers_cc13x2x7.a(RingBuf.c.obj)
 .text.RingBuf_peek
                0x0000000000000000       0x1c /home/runner/work/CatSneeze_toolkit/CatSneeze_toolkit/_ti_sdk/simplelink_cc13xx_cc26xx_sdk_8_32_00_07/source/ti/drivers/lib/gcc/m4f/drivers_cc13x2x7.a(RingBuf.c.obj)
 .text.RingBuf_putn
                0x0000000000000000       0x74 /home/runner/work/CatSneeze_toolkit/CatSneeze_toolkit/_ti_sdk/simplelink_cc13xx_cc26xx_sdk_8_32_00_07/source/ti/drivers/lib/gcc/m4f/drivers_cc13x2x7.a(RingBuf.c.obj)
 .text          0x0000000000000000        0x0 /home/runner/work/CatSneeze_toolkit/CatSneeze_toolkit/_ti_sdk/simplelink_cc13xx_cc26xx_sdk_8_32_00_07/source/ti/drivers/lib/gcc/m4f/drivers_cc13x2x7.a(UDMACC26XX.c.obj)
 .data          0x0000000000000000        0x0 /home/runner/work/CatSneeze_toolkit/CatSneeze_toolkit/_ti_sdk/simplelink_cc13xx_cc26xx_sdk_8_32_00_07/source/ti/drivers/lib/gcc/m4f/drivers_cc13x2x7.a(UDMACC26XX.c.obj)
 .bss           0x0000000000000000        0x0 /home/runner/work/CatSneeze_toolkit/CatSneeze_toolkit/_ti_sdk/simplelink_cc13xx_cc26xx_sdk_8_32_00_07/source/ti/drivers/lib/gcc/m4f/drivers_cc13x2x7.a(UDMACC26XX.c.obj)
 .text.UDMACC26XX_close
                0x0000000000000000       0x44 /home/runner/work/CatSneeze_toolkit/CatSneeze_toolkit/_ti_sdk/simplelink_cc13xx_cc26xx_sdk_8_32_00_07/source/ti/drivers/lib/gcc/m4f/drivers_cc13x2x7.a(UDMACC26XX.c.obj)
 .text          0x0000000000000000        0x0 /home/runner/work/CatSneeze_toolkit/CatSneeze_toolkit/_ti_sdk/simplelink_cc13xx_cc26xx_sdk_8_32_00_07/source/ti/drivers/lib/gcc/m4f/drivers_cc13x2x7.a(GPIO.c.obj)
 .data          0x0000000000000000        0x0 /home/runner/work/CatSneeze_toolkit/CatSneeze_toolkit/_ti_sdk/simplelink_cc13xx_cc26xx_sdk_8_32_00_07/source/ti/drivers/lib/gcc/m4f/drivers_cc13x2x7.a(GPIO.c.obj)
 .bss           0x0000000000000000        0x0 /home/runner/work/CatSneeze_toolkit/CatSneeze_toolkit/_ti_sdk/simplelink_cc13xx_cc26xx_sdk_8_32_00_07/source/ti/drivers/lib/gcc/m4f/drivers_cc13x2x7.a(GPIO.c.obj)
 .text.GPIO_setCallback
                0x0000000000000000       0x1c /home/runner/work/CatSneeze_toolkit/CatSneeze_toolkit/_ti_sdk/simplelink_cc13xx_cc26xx_sdk_8_32_00_07/source/ti/drivers/lib/gcc/m4f/drivers_cc13x2x7.a(GPIO.c.obj)
 .text.GPIO_getCallback
                0x0000000000000000       0x10 /home/runner/work/CatSneeze_toolkit/CatSneeze_toolkit/_ti_sdk/simplelink_cc13xx_cc26xx_sdk_8_32_00_07/source/ti/drivers/lib/gcc/m4f/drivers_cc13x2x7.a(GPIO.c.obj)
 .text.GPIO_setUserArg
                0x0000000000000000       0x14 /home/runner/work/CatSneeze_toolkit/CatSneeze_toolkit/_ti_sdk/simplelink_cc13xx_cc26xx_sdk_8_32_00_07/source/ti/drivers/lib/gcc/m4f/drivers_cc13x2x7.a(GPIO.c.obj)
 .text.GPIO_getUserArg
                0x0000000000000000       0x10 /home/runner/work/CatSneeze_toolkit/CatSneeze_toolkit/_ti_sdk/simplelink_cc13xx_cc26xx_sdk_8_32_00_07/source/ti/drivers/lib/gcc/m4f/drivers_cc13x2x7.a(GPIO.c.obj)
 .text.GPIO_resetConfig
                0x0000000000000000       0x3c /home/runner/work/CatSneeze_toolkit/CatSneeze_toolkit/_ti_sdk/simplelink_cc13xx_cc26xx_sdk_8_32_00_07/source/ti/drivers/lib/gcc/m4f/drivers_cc13x2x7.a(GPIO.c.obj)
 .debug_info    0x0000000000000000      0x3c3 /home/runner/work/CatSneeze_toolkit/CatSneeze_toolkit/_ti_sdk/simplelink_cc13xx_cc26xx_sdk_8_32_00_07/source/ti/drivers/lib/gcc/m4f/drivers_cc13x2x7.a(GPIO.c.obj)
 .debug_abbrev  0x0000000000000000      0x1d3 /home/runner/work/CatSneeze_toolkit/CatSneeze_toolkit/_ti_sdk/simplelink_cc13xx_cc26xx_sdk_8_32_00_07/source/ti/drivers/lib/gcc/m4f/drivers_cc13x2x7.a(GPIO.c.obj)
 .debug_loclists
                0x0000000000000000       0xfc /home/runner/work/CatSneeze_toolkit/CatSneeze_toolkit/_ti_sdk/simplelink_cc13xx_cc26xx_sdk_8_32_00_07/source/ti/drivers/lib/gcc/m4f/drivers_cc13x2x7.a(GPIO.c.obj)
 .debug_aranges
                0x0000000000000000       0x40 /home/runner/work/CatSneeze_toolkit/CatSneeze_toolkit/_ti_sdk/simplelink_cc13xx_cc26xx_sdk_8_32_00_07/source/ti/drivers/lib/gcc/m4f/drivers_cc13x2x7.a(GPIO.c.obj)
 .debug_rnglists
                0x0000000000000000       0x2b /home/runner/work/CatSneeze_toolkit/CatSneeze_toolkit/_ti_sdk/simplelink_cc13xx_cc26xx_sdk_8_32_00_07/source/ti/drivers/lib/gcc/m4f/drivers_cc13x2x7.a(GPIO.c.obj)
 .debug_line    0x0000000000000000      0x3d6 /home/runner/work/CatSneeze_toolkit/CatSneeze_toolkit/_ti_sdk/simplelink_cc13xx_cc26xx_sdk_8_32_00_07/source/ti/drivers/lib/gcc/m4f/drivers_cc13x2x7.a(GPIO.c.obj)
 .debug_str     0x0000000000000000      0x3d5 /home/runner/work/CatSneeze_toolkit/CatSneeze_toolkit/_ti_sdk/simplelink_cc13xx_cc26xx_sdk_8_32_00_07/source/ti/drivers/lib/gcc/m4f/drivers_cc13x2x7.a(GPIO.c.obj)
 .comment       0x0000000000000000       0x46 /home/runner/work/CatSneeze_toolkit/CatSneeze_toolkit/_ti_sdk/simplelink_cc13xx_cc26xx_sdk_8_32_00_07/source/ti/drivers/lib/gcc/m4f/drivers_cc13x2x7.a(GPIO.c.obj)
 .debug_frame   0x0000000000000000       0x6c /home/runner/work/CatSneeze_toolkit/CatSneeze_toolkit/_ti_sdk/simplelink_cc13xx_cc26xx_sdk_8_32_00_07/source/ti/drivers/lib/gcc/m4f/drivers_cc13x2x7.a(GPIO.c.obj)
 .ARM.attributes
                0x0000000000000000       0x34 /home/runner/work/CatSneeze_toolkit/CatSneeze_toolkit/_ti_sdk/simplelink_cc13xx_cc26xx_sdk_8_32_00_07/source/ti/drivers/lib/gcc/m4f/drivers_cc13x2x7.a(GPIO.c.obj)
 .text          0x0000000000000000        0x0 /home/runner/work/CatSneeze_toolkit/CatSneeze_toolkit/_ti_sdk/simplelink_cc13xx_cc26xx_sdk_8_32_00_07/source/ti/drivers/lib/gcc/m4f/drivers_cc13x2x7.a(GPIOCC26XX.c.obj)
 .data          0x0000000000000000        0x0 /home/runner/work/CatSneeze_toolkit/CatSneeze_toolkit/_ti_sdk/simplelink_cc13xx_cc26xx_sdk_8_32_00_07/source/ti/drivers/lib/gcc/m4f/drivers_cc13x2x7.a(GPIOCC26XX.c.obj)
 .bss           0x0000000000000000        0x0 /home/runner/work/CatSneeze_toolkit/CatSneeze_toolkit/_ti_sdk/simplelink_cc13xx_cc26xx_sdk_8_32_00_07/source/ti/drivers/lib/gcc/m4f/drivers_cc13x2x7.a(GPIOCC26XX.c.obj)
 .text.GPIO_clearInt
                0x0000000000000000       0x14 /home/runner/work/CatSneeze_toolkit/CatSneeze_toolkit/_ti_sdk/simplelink_cc13xx_cc26xx_sdk_8_32_00_07/source/ti/drivers/lib/gcc/m4f/drivers_cc13x2x7.a(GPIOCC26XX.c.obj)
 .text.GPIO_disableInt
                0x0000000000000000       0x18 /home/runner/work/CatSneeze_toolkit/CatSneeze_toolkit/_ti_sdk/simplelink_cc13xx_cc26xx_sdk_8_32_00_07/source/ti/drivers/lib/gcc/m4f/drivers_cc13x2x7.a(GPIOCC26XX.c.obj)
 .text.GPIO_enableInt
                0x0000000000000000       0x18 /home/runner/work/CatSneeze_toolkit/CatSneeze_toolkit/_ti_sdk/simplelink_cc13xx_cc26xx_sdk_8_32_00_07/source/ti/drivers/lib/gcc/m4f/drivers_cc13x2x7.a(GPIOCC26XX.c.obj)
 .text.GPIO_read
                0x0000000000000000       0x14 /home/runner/work/CatSneeze_toolkit/CatSneeze_toolkit/_ti_sdk/simplelink_cc13xx_cc26xx_sdk_8_32_00_07/source/ti/drivers/lib/gcc/m4f/drivers_cc13x2x7.a(GPIOCC26XX.c.obj)
 .text.GPIO_setConfig
                0x0000000000000000       0x98 /home/runner/work/CatSneeze_toolkit/CatSneeze_toolkit/_ti_sdk/simplelink_cc13xx_cc26xx_sdk_8_32_00_07/source/ti/drivers/lib/gcc/m4f/drivers_cc13x2x7.a(GPIOCC26XX.c.obj)
 .text.GPIO_setInterruptConfig
                0x0000000000000000       0x30 /home/runner/work/CatSneeze_toolkit/CatSneeze_toolkit/_ti_sdk/simplelink_cc13xx_cc26xx_sdk_8_32_00_07/source/ti/drivers/lib/gcc/m4f/drivers_cc13x2x7.a(GPIOCC26XX.c.obj)
 .text.GPIO_getConfig
                0x0000000000000000       0x54 /home/runner/work/CatSneeze_toolkit/CatSneeze_toolkit/_ti_sdk/simplelink_cc13xx_cc26xx_sdk_8_32_00_07/source/ti/drivers/lib/gcc/m4f/drivers_cc13x2x7.a(GPIOCC26XX.c.obj)
 .text.GPIO_getMux
                0x0000000000000000       0x10 /home/runner/work/CatSneeze_toolkit/CatSneeze_toolkit/_ti_sdk/simplelink_cc13xx_cc26xx_sdk_8_32_00_07/source/ti/drivers/lib/gcc/m4f/drivers_cc13x2x7.a(GPIOCC26XX.c.obj)
 .text.GPIO_toggle
                0x0000000000000000       0x14 /home/runner/work/CatSneeze_toolkit/CatSneeze_toolkit/_ti_sdk/simplelink_cc13xx_cc26xx_sdk_8_32_00_07/source/ti/drivers/lib/gcc/m4f/drivers_cc13x2x7.a(GPIOCC26XX.c.obj)
 .text.GPIO_write
                0x0000000000000000       0x14 /home/runner/work/CatSneeze_toolkit/CatSneeze_toolkit/_ti_sdk/simplelink_cc13xx_cc26xx_sdk_8_32_00_07/source/ti/drivers/lib/gcc/m4f/drivers_cc13x2x7.a(GPIOCC26XX.c.obj)
 .text          0x0000000000000000        0x0 /home/runner/work/CatSneeze_toolkit/CatSneeze_toolkit/_ti_sdk/simplelink_cc13xx_cc26xx_sdk_8_32_00_07/kernel/nortos/lib/gcc/m4f/nortos_cc13x2x7.a(NoRTOS.c.obj)
 .data          0x0000000000000000        0x0 /home/runner/work/CatSneeze_toolkit/CatSneeze_toolkit/_ti_sdk/simplelink_cc13xx_cc26xx_sdk_8_32_00_07/kernel/nortos/lib/gcc/m4f/nortos_cc13x2x7.a(NoRTOS.c.obj)
 .bss           0x0000000000000000        0x0 /home/runner/work/CatSneeze_toolkit/CatSneeze_toolkit/_ti_sdk/simplelink_cc13xx_cc26xx_sdk_8_32_00_07/kernel/nortos/lib/gcc/m4f/nortos_cc13x2x7.a(NoRTOS.c.obj)
 .text.NoRTOS_getConfig
                0x0000000000000000       0x20 /home/runner/work/CatSneeze_toolkit/CatSneeze_toolkit/_ti_sdk/simplelink_cc13xx_cc26xx_sdk_8_32_00_07/kernel/nortos/lib/gcc/m4f/nortos_cc13x2x7.a(NoRTOS.c.obj)
 .text.NoRTOS_setConfig
                0x0000000000000000       0x28 /home/runner/work/CatSneeze_toolkit/CatSneeze_toolkit/_ti_sdk/simplelink_cc13xx_cc26xx_sdk_8_32_00_07/kernel/nortos/lib/gcc/m4f/nortos_cc13x2x7.a(NoRTOS.c.obj)
 .text          0x0000000000000000        0x0 /home/runner/work/CatSneeze_toolkit/CatSneeze_toolkit/_ti_sdk/simplelink_cc13xx_cc26xx_sdk_8_32_00_07/kernel/nortos/lib/gcc/m4f/nortos_cc13x2x7.a(SemaphoreP_nortos.c.obj)
 .data          0x0000000000000000        0x0 /home/runner/work/CatSneeze_toolkit/CatSneeze_toolkit/_ti_sdk/simplelink_cc13xx_cc26xx_sdk_8_32_00_07/kernel/nortos/lib/gcc/m4f/nortos_cc13x2x7.a(SemaphoreP_nortos.c.obj)
 .bss           0x0000000000000000        0x0 /home/runner/work/CatSneeze_toolkit/CatSneeze_toolkit/_ti_sdk/simplelink_cc13xx_cc26xx_sdk_8_32_00_07/kernel/nortos/lib/gcc/m4f/nortos_cc13x2x7.a(SemaphoreP_nortos.c.obj)
 .text.SemaphoreP_create
                0x0000000000000000       0x64 /home/runner/work/CatSneeze_toolkit/CatSneeze_toolkit/_ti_sdk/simplelink_cc13xx_cc26xx_sdk_8_32_00_07/kernel/nortos/lib/gcc/m4f/nortos_cc13x2x7.a(SemaphoreP_nortos.c.obj)
 .text.SemaphoreP_createBinary
                0x0000000000000000       0x40 /home/runner/work/CatSneeze_toolkit/CatSneeze_toolkit/_ti_sdk/simplelink_cc13xx_cc26xx_sdk_8_32_00_07/kernel/nortos/lib/gcc/m4f/nortos_cc13x2x7.a(SemaphoreP_nortos.c.obj)
 .text.SemaphoreP_createBinaryCallback
                0x0000000000000000       0x3c /home/runner/work/CatSneeze_toolkit/CatSneeze_toolkit/_ti_sdk/simplelink_cc13xx_cc26xx_sdk_8_32_00_07/kernel/nortos/lib/gcc/m4f/nortos_cc13x2x7.a(SemaphoreP_nortos.c.obj)
 .text.SemaphoreP_delete
                0x0000000000000000        0x4 /home/runner/work/CatSneeze_toolkit/CatSneeze_toolkit/_ti_sdk/simplelink_cc13xx_cc26xx_sdk_8_32_00_07/kernel/nortos/lib/gcc/m4f/nortos_cc13x2x7.a(SemaphoreP_nortos.c.obj)
 .text.SemaphoreP_Params_init
                0x0000000000000000       0x14 /home/runner/work/CatSneeze_toolkit/CatSneeze_toolkit/_ti_sdk/simplelink_cc13xx_cc26xx_sdk_8_32_00_07/kernel/nortos/lib/gcc/m4f/nortos_cc13x2x7.a(SemaphoreP_nortos.c.obj)
 .text.SemaphoreP_staticObjectSize
                0x0000000000000000        0x4 /home/runner/work/CatSneeze_toolkit/CatSneeze_toolkit/_ti_sdk/simplelink_cc13xx_cc26xx_sdk_8_32_00_07/kernel/nortos/lib/gcc/m4f/nortos_cc13x2x7.a(SemaphoreP_nortos.c.obj)
 .text          0x0000000000000000        0x0 /home/runner/work/CatSneeze_toolkit/CatSneeze_toolkit/_ti_sdk/simplelink_cc13xx_cc26xx_sdk_8_32_00_07/kernel/nortos/lib/gcc/m4f/nortos_cc13x2x7.a(SwiP_nortos.c.obj)
 .data          0x0000000000000000        0x0 /home/runner/work/CatSneeze_toolkit/CatSneeze_toolkit/_ti_sdk/simplelink_cc13xx_cc26xx_sdk_8_32_00_07/kernel/nortos/lib/gcc/m4f/nortos_cc13x2x7.a(SwiP_nortos.c.obj)
 .bss           0x0000000000000000        0x0 /home/runner/work/CatSneeze_toolkit/CatSneeze_toolkit/_ti_sdk/simplelink_cc13xx_cc26xx_sdk_8_32_00_07/kernel/nortos/lib/gcc/m4f/nortos_cc13x2x7.a(SwiP_nortos.c.obj)
 .text.SwiP_create
                0x0000000000000000      0x11c /home/runner/work/CatSneeze_toolkit/CatSneeze_toolkit/_ti_sdk/simplelink_cc13xx_cc26xx_sdk_8_32_00_07/kernel/nortos/lib/gcc/m4f/nortos_cc13x2x7.a(SwiP_nortos.c.obj)
 .text.SwiP_destruct
                0x0000000000000000       0x38 /home/runner/work/CatSneeze_toolkit/CatSneeze_toolkit/_ti_sdk/simplelink_cc13xx_cc26xx_sdk_8_32_00_07/kernel/nortos/lib/gcc/m4f/nortos_cc13x2x7.a(SwiP_nortos.c.obj)
 .text.SwiP_delete
                0x0000000000000000       0x3c /home/runner/work/CatSneeze_toolkit/CatSneeze_toolkit/_ti_sdk/simplelink_cc13xx_cc26xx_sdk_8_32_00_07/kernel/nortos/lib/gcc/m4f/nortos_cc13x2x7.a(SwiP_nortos.c.obj)
 .text.SwiP_andn
                0x0000000000000000       0x88 /home/runner/work/CatSneeze_toolkit/CatSneeze_toolkit/_ti_sdk/simplelink_cc13xx_cc26xx_sdk_8_32_00_07/kernel/nortos/lib/gcc/m4f/nortos_cc13x2x7.a(SwiP_nortos.c.obj)
 .text.SwiP_dec
                0x0000000000000000       0x84 /home/runner/work/CatSneeze_toolkit/CatSneeze_toolkit/_ti_sdk/simplelink_cc13xx_cc26xx_sdk_8_32_00_07/kernel/nortos/lib/gcc/m4f/nortos_cc13x2x7.a(SwiP_nortos.c.obj)
 .text.SwiP_inc
                0x0000000000000000       0x7c /home/runner/work/CatSneeze_toolkit/CatSneeze_toolkit/_ti_sdk/simplelink_cc13xx_cc26xx_sdk_8_32_00_07/kernel/nortos/lib/gcc/m4f/nortos_cc13x2x7.a(SwiP_nortos.c.obj)
 .text.SwiP_inISR
                0x0000000000000000        0x4 /home/runner/work/CatSneeze_toolkit/CatSneeze_toolkit/_ti_sdk/simplelink_cc13xx_cc26xx_sdk_8_32_00_07/kernel/nortos/lib/gcc/m4f/nortos_cc13x2x7.a(SwiP_nortos.c.obj)
 .text.SwiP_setPriority
                0x0000000000000000       0x20 /home/runner/work/CatSneeze_toolkit/CatSneeze_toolkit/_ti_sdk/simplelink_cc13xx_cc26xx_sdk_8_32_00_07/kernel/nortos/lib/gcc/m4f/nortos_cc13x2x7.a(SwiP_nortos.c.obj)
 .text.SwiP_staticObjectSize
                0x0000000000000000        0x4 /home/runner/work/CatSneeze_toolkit/CatSneeze_toolkit/_ti_sdk/simplelink_cc13xx_cc26xx_sdk_8_32_00_07/kernel/nortos/lib/gcc/m4f/nortos_cc13x2x7.a(SwiP_nortos.c.obj)
 .text          0x0000000000000000        0x0 /home/runner/work/CatSneeze_toolkit/CatSneeze_toolkit/_ti_sdk/simplelink_cc13xx_cc26xx_sdk_8_32_00_07/kernel/nortos/lib/gcc/m4f/nortos_cc13x2x7.a(ClockPTimer_nortos.c.obj)
 .data          0x0000000000000000        0x0 /home/runner/work/CatSneeze_toolkit/CatSneeze_toolkit/_ti_sdk/simplelink_cc13xx_cc26xx_sdk_8_32_00_07/kernel/nortos/lib/gcc/m4f/nortos_cc13x2x7.a(ClockPTimer_nortos.c.obj)
 .bss           0x0000000000000000        0x0 /home/runner/work/CatSneeze_toolkit/CatSneeze_toolkit/_ti_sdk/simplelink_cc13xx_cc26xx_sdk_8_32_00_07/kernel/nortos/lib/gcc/m4f/nortos_cc13x2x7.a(ClockPTimer_nortos.c.obj)
 .text.systemTicks64Callback
                0x0000000000000000       0x34 /home/runner/work/CatSneeze_toolkit/CatSneeze_toolkit/_ti_sdk/simplelink_cc13xx_cc26xx_sdk_8_32_00_07/kernel/nortos/lib/gcc/m4f/nortos_cc13x2x7.a(ClockPTimer_nortos.c.obj)
 .text.ClockP_getTicks
                0x0000000000000000       0x24 /home/runner/work/CatSneeze_toolkit/CatSneeze_toolkit/_ti_sdk/simplelink_cc13xx_cc26xx_sdk_8_32_00_07/kernel/nortos/lib/gcc/m4f/nortos_cc13x2x7.a(ClockPTimer_nortos.c.obj)
 .text.ClockP_scheduleNextTick
                0x0000000000000000       0x20 /home/runner/work/CatSneeze_toolkit/CatSneeze_toolkit/_ti_sdk/simplelink_cc13xx_cc26xx_sdk_8_32_00_07/kernel/nortos/lib/gcc/m4f/nortos_cc13x2x7.a(ClockPTimer_nortos.c.obj)
 .text.ClockP_walkQueueDynamic
                0x0000000000000000       0x98 /home/runner/work/CatSneeze_toolkit/CatSneeze_toolkit/_ti_sdk/simplelink_cc13xx_cc26xx_sdk_8_32_00_07/kernel/nortos/lib/gcc/m4f/nortos_cc13x2x7.a(ClockPTimer_nortos.c.obj)
 .text.ClockP_delete
                0x0000000000000000       0x20 /home/runner/work/CatSneeze_toolkit/CatSneeze_toolkit/_ti_sdk/simplelink_cc13xx_cc26xx_sdk_8_32_00_07/kernel/nortos/lib/gcc/m4f/nortos_cc13x2x7.a(ClockPTimer_nortos.c.obj)
 .text.ClockP_create
                0x0000000000000000       0x5c /home/runner/work/CatSneeze_toolkit/CatSneeze_toolkit/_ti_sdk/simplelink_cc13xx_cc26xx_sdk_8_32_00_07/kernel/nortos/lib/gcc/m4f/nortos_cc13x2x7.a(ClockPTimer_nortos.c.obj)
 .text.ClockP_setFunc
                0x0000000000000000       0x18 /home/runner/work/CatSneeze_toolkit/CatSneeze_toolkit/_ti_sdk/simplelink_cc13xx_cc26xx_sdk_8_32_00_07/kernel/nortos/lib/gcc/m4f/nortos_cc13x2x7.a(ClockPTimer_nortos.c.obj)
 .text.ClockP_setPeriod
                0x0000000000000000        0x4 /home/runner/work/CatSneeze_toolkit/CatSneeze_toolkit/_ti_sdk/simplelink_cc13xx_cc26xx_sdk_8_32_00_07/kernel/nortos/lib/gcc/m4f/nortos_cc13x2x7.a(ClockPTimer_nortos.c.obj)
 .text.ClockP_getSystemTicks64
                0x0000000000000000       0xf0 /home/runner/work/CatSneeze_toolkit/CatSneeze_toolkit/_ti_sdk/simplelink_cc13xx_cc26xx_sdk_8_32_00_07/kernel/nortos/lib/gcc/m4f/nortos_cc13x2x7.a(ClockPTimer_nortos.c.obj)
 .text.ClockP_sleep
                0x0000000000000000       0x50 /home/runner/work/CatSneeze_toolkit/CatSneeze_toolkit/_ti_sdk/simplelink_cc13xx_cc26xx_sdk_8_32_00_07/kernel/nortos/lib/gcc/m4f/nortos_cc13x2x7.a(ClockPTimer_nortos.c.obj)
 .text.ClockP_staticObjectSize
                0x0000000000000000        0x4 /home/runner/work/CatSneeze_toolkit/CatSneeze_toolkit/_ti_sdk/simplelink_cc13xx_cc26xx_sdk_8_32_00_07/kernel/nortos/lib/gcc/m4f/nortos_cc13x2x7.a(ClockPTimer_nortos.c.obj)
 .bss.systemTicks64Clock.0
                0x0000000000000000       0x44 /home/runner/work/CatSneeze_toolkit/CatSneeze_toolkit/_ti_sdk/simplelink_cc13xx_cc26xx_sdk_8_32_00_07/kernel/nortos/lib/gcc/m4f/nortos_cc13x2x7.a(ClockPTimer_nortos.c.obj)
 .bss.systemTicks64Initialised.1
                0x0000000000000000        0x1 /home/runner/work/CatSneeze_toolkit/CatSneeze_toolkit/_ti_sdk/simplelink_cc13xx_cc26xx_sdk_8_32_00_07/kernel/nortos/lib/gcc/m4f/nortos_cc13x2x7.a(ClockPTimer_nortos.c.obj)
 .bss.isUpperSystemTicks64Updated
                0x0000000000000000        0x1 /home/runner/work/CatSneeze_toolkit/CatSneeze_toolkit/_ti_sdk/simplelink_cc13xx_cc26xx_sdk_8_32_00_07/kernel/nortos/lib/gcc/m4f/nortos_cc13x2x7.a(ClockPTimer_nortos.c.obj)
 .bss.upperSystemTicks64
                0x0000000000000000        0x4 /home/runner/work/CatSneeze_toolkit/CatSneeze_toolkit/_ti_sdk/simplelink_cc13xx_cc26xx_sdk_8_32_00_07/kernel/nortos/lib/gcc/m4f/nortos_cc13x2x7.a(ClockPTimer_nortos.c.obj)
 .text          0x0000000000000000        0x0 /home/runner/work/CatSneeze_toolkit/CatSneeze_toolkit/_ti_sdk/simplelink_cc13xx_cc26xx_sdk_8_32_00_07/kernel/nortos/lib/gcc/m4f/nortos_cc13x2x7.a(QueueP_nortos.c.obj)
 .data          0x0000000000000000        0x0 /home/runner/work/CatSneeze_toolkit/CatSneeze_toolkit/_ti_sdk/simplelink_cc13xx_cc26xx_sdk_8_32_00_07/kernel/nortos/lib/gcc/m4f/nortos_cc13x2x7.a(QueueP_nortos.c.obj)
 .bss           0x0000000000000000        0x0 /home/runner/work/CatSneeze_toolkit/CatSneeze_toolkit/_ti_sdk/simplelink_cc13xx_cc26xx_sdk_8_32_00_07/kernel/nortos/lib/gcc/m4f/nortos_cc13x2x7.a(QueueP_nortos.c.obj)
 .text.QueueP_getTail
                0x0000000000000000       0x1c /home/runner/work/CatSneeze_toolkit/CatSneeze_toolkit/_ti_sdk/simplelink_cc13xx_cc26xx_sdk_8_32_00_07/kernel/nortos/lib/gcc/m4f/nortos_cc13x2x7.a(QueueP_nortos.c.obj)
 .text.QueueP_elemClear
                0x0000000000000000        0x8 /home/runner/work/CatSneeze_toolkit/CatSneeze_toolkit/_ti_sdk/simplelink_cc13xx_cc26xx_sdk_8_32_00_07/kernel/nortos/lib/gcc/m4f/nortos_cc13x2x7.a(QueueP_nortos.c.obj)
 .text.QueueP_insert
                0x0000000000000000       0x20 /home/runner/work/CatSneeze_toolkit/CatSneeze_toolkit/_ti_sdk/simplelink_cc13xx_cc26xx_sdk_8_32_00_07/kernel/nortos/lib/gcc/m4f/nortos_cc13x2x7.a(QueueP_nortos.c.obj)
 .text.QueueP_prev
                0x0000000000000000        0x4 /home/runner/work/CatSneeze_toolkit/CatSneeze_toolkit/_ti_sdk/simplelink_cc13xx_cc26xx_sdk_8_32_00_07/kernel/nortos/lib/gcc/m4f/nortos_cc13x2x7.a(QueueP_nortos.c.obj)
 .text.QueueP_putHead
                0x0000000000000000       0x20 /home/runner/work/CatSneeze_toolkit/CatSneeze_toolkit/_ti_sdk/simplelink_cc13xx_cc26xx_sdk_8_32_00_07/kernel/nortos/lib/gcc/m4f/nortos_cc13x2x7.a(QueueP_nortos.c.obj)
 .text.QueueP_isQueued
                0x0000000000000000       0x14 /home/runner/work/CatSneeze_toolkit/CatSneeze_toolkit/_ti_sdk/simplelink_cc13xx_cc26xx_sdk_8_32_00_07/kernel/nortos/lib/gcc/m4f/nortos_cc13x2x7.a(QueueP_nortos.c.obj)
 .text          0x0000000000000000        0x0 /home/runner/work/CatSneeze_toolkit/CatSneeze_toolkit/_ti_sdk/simplelink_cc13xx_cc26xx_sdk_8_32_00_07/kernel/nortos/lib/gcc/m4f/nortos_cc13x2x7.a(HwiPCC26XX_nortos.c.obj)
 .data          0x0000000000000000        0x0 /home/runner/work/CatSneeze_toolkit/CatSneeze_toolkit/_ti_sdk/simplelink_cc13xx_cc26xx_sdk_8_32_00_07/kernel/nortos/lib/gcc/m4f/nortos_cc13x2x7.a(HwiPCC26XX_nortos.c.obj)
 .bss           0x0000000000000000        0x0 /home/runner/work/CatSneeze_toolkit/CatSneeze_toolkit/_ti_sdk/simplelink_cc13xx_cc26xx_sdk_8_32_00_07/kernel/nortos/lib/gcc/m4f/nortos_cc13x2x7.a(HwiPCC26XX_nortos.c.obj)
 .text.HwiP_clearInterrupt
                0x0000000000000000        0xc /home/runner/work/CatSneeze_toolkit/CatSneeze_toolkit/_ti_sdk/simplelink_cc13xx_cc26xx_sdk_8_32_00_07/kernel/nortos/lib/gcc/m4f/nortos_cc13x2x7.a(HwiPCC26XX_nortos.c.obj)
 .text.HwiP_destruct
                0x0000000000000000       0x1c /home/runner/work/CatSneeze_toolkit/CatSneeze_toolkit/_ti_sdk/simplelink_cc13xx_cc26xx_sdk_8_32_00_07/kernel/nortos/lib/gcc/m4f/nortos_cc13x2x7.a(HwiPCC26XX_nortos.c.obj)
 .text.HwiP_delete
                0x0000000000000000       0x24 /home/runner/work/CatSneeze_toolkit/CatSneeze_toolkit/_ti_sdk/simplelink_cc13xx_cc26xx_sdk_8_32_00_07/kernel/nortos/lib/gcc/m4f/nortos_cc13x2x7.a(HwiPCC26XX_nortos.c.obj)
 .text.HwiP_disableInterrupt
                0x0000000000000000        0xc /home/runner/work/CatSneeze_toolkit/CatSneeze_toolkit/_ti_sdk/simplelink_cc13xx_cc26xx_sdk_8_32_00_07/kernel/nortos/lib/gcc/m4f/nortos_cc13x2x7.a(HwiPCC26XX_nortos.c.obj)
 .text.HwiP_create
                0x0000000000000000       0x98 /home/runner/work/CatSneeze_toolkit/CatSneeze_toolkit/_ti_sdk/simplelink_cc13xx_cc26xx_sdk_8_32_00_07/kernel/nortos/lib/gcc/m4f/nortos_cc13x2x7.a(HwiPCC26XX_nortos.c.obj)
 .text.HwiP_plug
                0x0000000000000000        0x4 /home/runner/work/CatSneeze_toolkit/CatSneeze_toolkit/_ti_sdk/simplelink_cc13xx_cc26xx_sdk_8_32_00_07/kernel/nortos/lib/gcc/m4f/nortos_cc13x2x7.a(HwiPCC26XX_nortos.c.obj)
 .text.HwiP_inSwi
                0x0000000000000000       0x1c /home/runner/work/CatSneeze_toolkit/CatSneeze_toolkit/_ti_sdk/simplelink_cc13xx_cc26xx_sdk_8_32_00_07/kernel/nortos/lib/gcc/m4f/nortos_cc13x2x7.a(HwiPCC26XX_nortos.c.obj)
 .text.HwiP_setPriority
                0x0000000000000000       0x10 /home/runner/work/CatSneeze_toolkit/CatSneeze_toolkit/_ti_sdk/simplelink_cc13xx_cc26xx_sdk_8_32_00_07/kernel/nortos/lib/gcc/m4f/nortos_cc13x2x7.a(HwiPCC26XX_nortos.c.obj)
 .text.HwiP_staticObjectSize
                0x0000000000000000        0x4 /home/runner/work/CatSneeze_toolkit/CatSneeze_toolkit/_ti_sdk/simplelink_cc13xx_cc26xx_sdk_8_32_00_07/kernel/nortos/lib/gcc/m4f/nortos_cc13x2x7.a(HwiPCC26XX_nortos.c.obj)
 .text          0x0000000000000000        0x0 /home/runner/work/CatSneeze_toolkit/CatSneeze_toolkit/_ti_sdk/simplelink_cc13xx_cc26xx_sdk_8_32_00_07/kernel/nortos/lib/gcc/m4f/nortos_cc13x2x7.a(PowerCC26X2_nortos.c.obj)
 .data          0x0000000000000000        0x0 /home/runner/work/CatSneeze_toolkit/CatSneeze_toolkit/_ti_sdk/simplelink_cc13xx_cc26xx_sdk_8_32_00_07/kernel/nortos/lib/gcc/m4f/nortos_cc13x2x7.a(PowerCC26X2_nortos.c.obj)
 .bss           0x0000000000000000        0x0 /home/runner/work/CatSneeze_toolkit/CatSneeze_toolkit/_ti_sdk/simplelink_cc13xx_cc26xx_sdk_8_32_00_07/kernel/nortos/lib/gcc/m4f/nortos_cc13x2x7.a(PowerCC26X2_nortos.c.obj)
 .text          0x0000000000000000        0x0 /home/runner/work/CatSneeze_toolkit/CatSneeze_toolkit/_ti_sdk/simplelink_cc13xx_cc26xx_sdk_8_32_00_07/kernel/nortos/lib/gcc/m4f/nortos_cc13x2x7.a(TimerPCC26XX_nortos.c.obj)
 .data          0x0000000000000000        0x0 /home/runner/work/CatSneeze_toolkit/CatSneeze_toolkit/_ti_sdk/simplelink_cc13xx_cc26xx_sdk_8_32_00_07/kernel/nortos/lib/gcc/m4f/nortos_cc13x2x7.a(TimerPCC26XX_nortos.c.obj)
 .bss           0x0000000000000000        0x0 /home/runner/work/CatSneeze_toolkit/CatSneeze_toolkit/_ti_sdk/simplelink_cc13xx_cc26xx_sdk_8_32_00_07/kernel/nortos/lib/gcc/m4f/nortos_cc13x2x7.a(TimerPCC26XX_nortos.c.obj)
 .text.TimerP_create
                0x0000000000000000      0x100 /home/runner/work/CatSneeze_toolkit/CatSneeze_toolkit/_ti_sdk/simplelink_cc13xx_cc26xx_sdk_8_32_00_07/kernel/nortos/lib/gcc/m4f/nortos_cc13x2x7.a(TimerPCC26XX_nortos.c.obj)
 .text.TimerP_setThreshold
                0x0000000000000000       0x2c /home/runner/work/CatSneeze_toolkit/CatSneeze_toolkit/_ti_sdk/simplelink_cc13xx_cc26xx_sdk_8_32_00_07/kernel/nortos/lib/gcc/m4f/nortos_cc13x2x7.a(TimerPCC26XX_nortos.c.obj)
 .text.TimerP_startup
                0x0000000000000000       0x58 /home/runner/work/CatSneeze_toolkit/CatSneeze_toolkit/_ti_sdk/simplelink_cc13xx_cc26xx_sdk_8_32_00_07/kernel/nortos/lib/gcc/m4f/nortos_cc13x2x7.a(TimerPCC26XX_nortos.c.obj)
 .text.TimerP_start
                0x0000000000000000       0x4c /home/runner/work/CatSneeze_toolkit/CatSneeze_toolkit/_ti_sdk/simplelink_cc13xx_cc26xx_sdk_8_32_00_07/kernel/nortos/lib/gcc/m4f/nortos_cc13x2x7.a(TimerPCC26XX_nortos.c.obj)
 .text.TimerP_stop
                0x0000000000000000        0xc /home/runner/work/CatSneeze_toolkit/CatSneeze_toolkit/_ti_sdk/simplelink_cc13xx_cc26xx_sdk_8_32_00_07/kernel/nortos/lib/gcc/m4f/nortos_cc13x2x7.a(TimerPCC26XX_nortos.c.obj)
 .text.TimerP_setPeriod
                0x0000000000000000        0x4 /home/runner/work/CatSneeze_toolkit/CatSneeze_toolkit/_ti_sdk/simplelink_cc13xx_cc26xx_sdk_8_32_00_07/kernel/nortos/lib/gcc/m4f/nortos_cc13x2x7.a(TimerPCC26XX_nortos.c.obj)
 .text          0x0000000000000000        0x0 /home/runner/work/CatSneeze_toolkit/CatSneeze_toolkit/_ti_sdk/simplelink_cc13xx_cc26xx_sdk_8_32_00_07/source/ti/devices/cc13x2x7_cc26x2x7/driverlib/bin/gcc/driverlib.lib(chipinfo.c.obj)
 .data          0x0000000000000000        0x0 /home/runner/work/CatSneeze_toolkit/CatSneeze_toolkit/_ti_sdk/simplelink_cc13xx_cc26xx_sdk_8_32_00_07/source/ti/devices/cc13x2x7_cc26x2x7/driverlib/bin/gcc/driverlib.lib(chipinfo.c.obj)
 .bss           0x0000000000000000        0x0 /home/runner/work/CatSneeze_toolkit/CatSneeze_toolkit/_ti_sdk/simplelink_cc13xx_cc26xx_sdk_8_32_00_07/source/ti/devices/cc13x2x7_cc26x2x7/driverlib/bin/gcc/driverlib.lib(chipinfo.c.obj)
 .text.NOROM_ChipInfo_GetSupportedProtocol_BV
                0x0000000000000000       0x10 /home/runner/work/CatSneeze_toolkit/CatSneeze_toolkit/_ti_sdk/simplelink_cc13xx_cc26xx_sdk_8_32_00_07/source/ti/devices/cc13x2x7_cc26x2x7/driverlib/bin/gcc/driverlib.lib(chipinfo.c.obj)
 .text.NOROM_ChipInfo_GetPackageType
                0x0000000000000000       0x1c /home/runner/work/CatSneeze_toolkit/CatSneeze_toolkit/_ti_sdk/simplelink_cc13xx_cc26xx_sdk_8_32_00_07/source/ti/devices/cc13x2x7_cc26x2x7/driverlib/bin/gcc/driverlib.lib(chipinfo.c.obj)
 .text.NOROM_ChipInfo_GetChipFamily
                0x0000000000000000       0x20 /home/runner/work/CatSneeze_toolkit/CatSneeze_toolkit/_ti_sdk/simplelink_cc13xx_cc26xx_sdk_8_32_00_07/source/ti/devices/cc13x2x7_cc26x2x7/driverlib/bin/gcc/driverlib.lib(chipinfo.c.obj)
 .text.NOROM_ChipInfo_GetHwRevision
                0x0000000000000000       0x44 /home/runner/work/CatSneeze_toolkit/CatSneeze_toolkit/_ti_sdk/simplelink_cc13xx_cc26xx_sdk_8_32_00_07/source/ti/devices/cc13x2x7_cc26x2x7/driverlib/bin/gcc/driverlib.lib(chipinfo.c.obj)
 .text          0x0000000000000000        0x0 /home/runner/work/CatSneeze_toolkit/CatSneeze_toolkit/_ti_sdk/simplelink_cc13xx_cc26xx_sdk_8_32_00_07/source/ti/devices/cc13x2x7_cc26x2x7/driverlib/bin/gcc/driverlib.lib(cpu.c.obj)
 .data          0x0000000000000000        0x0 /home/runner/work/CatSneeze_toolkit/CatSneeze_toolkit/_ti_sdk/simplelink_cc13xx_cc26xx_sdk_8_32_00_07/source/ti/devices/cc13x2x7_cc26x2x7/driverlib/bin/gcc/driverlib.lib(cpu.c.obj)
 .bss           0x0000000000000000        0x0 /home/runner/work/CatSneeze_toolkit/CatSneeze_toolkit/_ti_sdk/simplelink_cc13xx_cc26xx_sdk_8_32_00_07/source/ti/devices/cc13x2x7_cc26x2x7/driverlib/bin/gcc/driverlib.lib(cpu.c.obj)
 .text.NOROM_CPUbasepriGet
                0x0000000000000000        0x8 /home/runner/work/CatSneeze_toolkit/CatSneeze_toolkit/_ti_sdk/simplelink_cc13xx_cc26xx_sdk_8_32_00_07/source/ti/devices/cc13x2x7_cc26x2x7/driverlib/bin/gcc/driverlib.lib(cpu.c.obj)
 .text          0x0000000000000000        0x0 /home/runner/work/CatSneeze_toolkit/CatSneeze_toolkit/_ti_sdk/simplelink_cc13xx_cc26xx_sdk_8_32_00_07/source/ti/devices/cc13x2x7_cc26x2x7/driverlib/bin/gcc/driverlib.lib(interrupt.c.obj)
 .data          0x0000000000000000        0x0 /home/runner/work/CatSneeze_toolkit/CatSneeze_toolkit/_ti_sdk/simplelink_cc13xx_cc26xx_sdk_8_32_00_07/source/ti/devices/cc13x2x7_cc26x2x7/driverlib/bin/gcc/driverlib.lib(interrupt.c.obj)
 .bss           0x0000000000000000        0x0 /home/runner/work/CatSneeze_toolkit/CatSneeze_toolkit/_ti_sdk/simplelink_cc13xx_cc26xx_sdk_8_32_00_07/source/ti/devices/cc13x2x7_cc26x2x7/driverlib/bin/gcc/driverlib.lib(interrupt.c.obj)
 .text.IntDefaultHandler
                0x0000000000000000        0x4 /home/runner/work/CatSneeze_toolkit/CatSneeze_toolkit/_ti_sdk/simplelink_cc13xx_cc26xx_sdk_8_32_00_07/source/ti/devices/cc13x2x7_cc26x2x7/driverlib/bin/gcc/driverlib.lib(interrupt.c.obj)
 .text.NOROM_IntUnregister
                0x0000000000000000       0x14 /home/runner/work/CatSneeze_toolkit/CatSneeze_toolkit/_ti_sdk/simplelink_cc13xx_cc26xx_sdk_8_32_00_07/source/ti/devices/cc13x2x7_cc26x2x7/driverlib/bin/gcc/driverlib.lib(interrupt.c.obj)
 .text.NOROM_IntPriorityGroupingSet
                0x0000000000000000       0x1c /home/runner/work/CatSneeze_toolkit/CatSneeze_toolkit/_ti_sdk/simplelink_cc13xx_cc26xx_sdk_8_32_00_07/source/ti/devices/cc13x2x7_cc26x2x7/driverlib/bin/gcc/driverlib.lib(interrupt.c.obj)
 .text.NOROM_IntPriorityGroupingGet
                0x0000000000000000       0x5c /home/runner/work/CatSneeze_toolkit/CatSneeze_toolkit/_ti_sdk/simplelink_cc13xx_cc26xx_sdk_8_32_00_07/source/ti/devices/cc13x2x7_cc26x2x7/driverlib/bin/gcc/driverlib.lib(interrupt.c.obj)
 .text.NOROM_IntPrioritySet
                0x0000000000000000       0x2c /home/runner/work/CatSneeze_toolkit/CatSneeze_toolkit/_ti_sdk/simplelink_cc13xx_cc26xx_sdk_8_32_00_07/source/ti/devices/cc13x2x7_cc26x2x7/driverlib/bin/gcc/driverlib.lib(interrupt.c.obj)
 .text.NOROM_IntPriorityGet
                0x0000000000000000       0x1c /home/runner/work/CatSneeze_toolkit/CatSneeze_toolkit/_ti_sdk/simplelink_cc13xx_cc26xx_sdk_8_32_00_07/source/ti/devices/cc13x2x7_cc26x2x7/driverlib/bin/gcc/driverlib.lib(interrupt.c.obj)
 .text.NOROM_IntEnable
                0x0000000000000000       0x88 /home/runner/work/CatSneeze_toolkit/CatSneeze_toolkit/_ti_sdk/simplelink_cc13xx_cc26xx_sdk_8_32_00_07/source/ti/devices/cc13x2x7_cc26x2x7/driverlib/bin/gcc/driverlib.lib(interrupt.c.obj)
 .text.NOROM_IntDisable
                0x0000000000000000       0x88 /home/runner/work/CatSneeze_toolkit/CatSneeze_toolkit/_ti_sdk/simplelink_cc13xx_cc26xx_sdk_8_32_00_07/source/ti/devices/cc13x2x7_cc26x2x7/driverlib/bin/gcc/driverlib.lib(interrupt.c.obj)
 .text.NOROM_IntPendSet
                0x0000000000000000       0x70 /home/runner/work/CatSneeze_toolkit/CatSneeze_toolkit/_ti_sdk/simplelink_cc13xx_cc26xx_sdk_8_32_00_07/source/ti/devices/cc13x2x7_cc26x2x7/driverlib/bin/gcc/driverlib.lib(interrupt.c.obj)
 .text.NOROM_IntPendGet
                0x0000000000000000       0x28 /home/runner/work/CatSneeze_toolkit/CatSneeze_toolkit/_ti_sdk/simplelink_cc13xx_cc26xx_sdk_8_32_00_07/source/ti/devices/cc13x2x7_cc26x2x7/driverlib/bin/gcc/driverlib.lib(interrupt.c.obj)
 .text.NOROM_IntPendClear
                0x0000000000000000       0x58 /home/runner/work/CatSneeze_toolkit/CatSneeze_toolkit/_ti_sdk/simplelink_cc13xx_cc26xx_sdk_8_32_00_07/source/ti/devices/cc13x2x7_cc26x2x7/driverlib/bin/gcc/driverlib.lib(interrupt.c.obj)
 .rodata.g_pui32Regs
                0x0000000000000000       0x48 /home/runner/work/CatSneeze_toolkit/CatSneeze_toolkit/_ti_sdk/simplelink_cc13xx_cc26xx_sdk_8_32_00_07/source/ti/devices/cc13x2x7_cc26x2x7/driverlib/bin/gcc/driverlib.lib(interrupt.c.obj)
 .rodata.g_pui32Priority
                0x0000000000000000       0x20 /home/runner/work/CatSneeze_toolkit/CatSneeze_toolkit/_ti_sdk/simplelink_cc13xx_cc26xx_sdk_8_32_00_07/source/ti/devices/cc13x2x7_cc26x2x7/driverlib/bin/gcc/driverlib.lib(interrupt.c.obj)
 .text          0x0000000000000000        0x0 /home/runner/work/CatSneeze_toolkit/CatSneeze_toolkit/_ti_sdk/simplelink_cc13xx_cc26xx_sdk_8_32_00_07/source/ti/devices/cc13x2x7_cc26x2x7/driverlib/bin/gcc/driverlib.lib(osc.c.obj)
 .data          0x0000000000000000        0x0 /home/runner/work/CatSneeze_toolkit/CatSneeze_toolkit/_ti_sdk/simplelink_cc13xx_cc26xx_sdk_8_32_00_07/source/ti/devices/cc13x2x7_cc26x2x7/driverlib/bin/gcc/driverlib.lib(osc.c.obj)
 .bss           0x0000000000000000        0x0 /home/runner/work/CatSneeze_toolkit/CatSneeze_toolkit/_ti_sdk/simplelink_cc13xx_cc26xx_sdk_8_32_00_07/source/ti/devices/cc13x2x7_cc26x2x7/driverlib/bin/gcc/driverlib.lib(osc.c.obj)
 .text.findHposcCoefficients
                0x0000000000000000      0x870 /home/runner/work/CatSneeze_toolkit/CatSneeze_toolkit/_ti_sdk/simplelink_cc13xx_cc26xx_sdk_8_32_00_07/source/ti/devices/cc13x2x7_cc26x2x7/driverlib/bin/gcc/driverlib.lib(osc.c.obj)
 .text.NOROM_OSCClockSourceSet
                0x0000000000000000       0x48 /home/runner/work/CatSneeze_toolkit/CatSneeze_toolkit/_ti_sdk/simplelink_cc13xx_cc26xx_sdk_8_32_00_07/source/ti/devices/cc13x2x7_cc26x2x7/driverlib/bin/gcc/driverlib.lib(osc.c.obj)
 .text.NOROM_OSCClockSourceGet
                0x0000000000000000       0x24 /home/runner/work/CatSneeze_toolkit/CatSneeze_toolkit/_ti_sdk/simplelink_cc13xx_cc26xx_sdk_8_32_00_07/source/ti/devices/cc13x2x7_cc26x2x7/driverlib/bin/gcc/driverlib.lib(osc.c.obj)
 .text.NOROM_OSCHF_GetStartupTime
                0x0000000000000000       0xbc /home/runner/work/CatSneeze_toolkit/CatSneeze_toolkit/_ti_sdk/simplelink_cc13xx_cc26xx_sdk_8_32_00_07/source/ti/devices/cc13x2x7_cc26x2x7/driverlib/bin/gcc/driverlib.lib(osc.c.obj)
 .text.NOROM_OSC_AdjustXoscHfCapArray
                0x0000000000000000       0x40 /home/runner/work/CatSneeze_toolkit/CatSneeze_toolkit/_ti_sdk/simplelink_cc13xx_cc26xx_sdk_8_32_00_07/source/ti/devices/cc13x2x7_cc26x2x7/driverlib/bin/gcc/driverlib.lib(osc.c.obj)
 .text.NOROM_OSC_HPOSCInitializeFrequencyOffsetParameters
                0x0000000000000000      0x3a4 /home/runner/work/CatSneeze_toolkit/CatSneeze_toolkit/_ti_sdk/simplelink_cc13xx_cc26xx_sdk_8_32_00_07/source/ti/devices/cc13x2x7_cc26x2x7/driverlib/bin/gcc/driverlib.lib(osc.c.obj)
 .text.NOROM_OSC_HPOSC_Debug_InitFreqOffsetParams
                0x0000000000000000      0x3a0 /home/runner/work/CatSneeze_toolkit/CatSneeze_toolkit/_ti_sdk/simplelink_cc13xx_cc26xx_sdk_8_32_00_07/source/ti/devices/cc13x2x7_cc26x2x7/driverlib/bin/gcc/driverlib.lib(osc.c.obj)
 .text.NOROM_OSC_HPOSCInitializeSingleInsertionFreqOffsParams
                0x0000000000000000       0xd4 /home/runner/work/CatSneeze_toolkit/CatSneeze_toolkit/_ti_sdk/simplelink_cc13xx_cc26xx_sdk_8_32_00_07/source/ti/devices/cc13x2x7_cc26x2x7/driverlib/bin/gcc/driverlib.lib(osc.c.obj)
 .text.NOROM_OSC_LFXOSCInitStaticOffset
                0x0000000000000000       0x90 /home/runner/work/CatSneeze_toolkit/CatSneeze_toolkit/_ti_sdk/simplelink_cc13xx_cc26xx_sdk_8_32_00_07/source/ti/devices/cc13x2x7_cc26x2x7/driverlib/bin/gcc/driverlib.lib(osc.c.obj)
 .text.NOROM_OSC_LFXOSCRelativeFrequencyOffsetGet
                0x0000000000000000       0x28 /home/runner/work/CatSneeze_toolkit/CatSneeze_toolkit/_ti_sdk/simplelink_cc13xx_cc26xx_sdk_8_32_00_07/source/ti/devices/cc13x2x7_cc26x2x7/driverlib/bin/gcc/driverlib.lib(osc.c.obj)
 .text.NOROM_OSC_HPOSCRelativeFrequencyOffsetToRFCoreFormatConvert
                0x0000000000000000        0xc /home/runner/work/CatSneeze_toolkit/CatSneeze_toolkit/_ti_sdk/simplelink_cc13xx_cc26xx_sdk_8_32_00_07/source/ti/devices/cc13x2x7_cc26x2x7/driverlib/bin/gcc/driverlib.lib(osc.c.obj)
 .text.NOROM_OSC_HPOSCRtcCompensate
                0x0000000000000000       0x6c /home/runner/work/CatSneeze_toolkit/CatSneeze_toolkit/_ti_sdk/simplelink_cc13xx_cc26xx_sdk_8_32_00_07/source/ti/devices/cc13x2x7_cc26x2x7/driverlib/bin/gcc/driverlib.lib(osc.c.obj)
 .text.NOROM_OSCHF_DebugGetCrystalAmplitude
                0x0000000000000000       0x3c /home/runner/work/CatSneeze_toolkit/CatSneeze_toolkit/_ti_sdk/simplelink_cc13xx_cc26xx_sdk_8_32_00_07/source/ti/devices/cc13x2x7_cc26x2x7/driverlib/bin/gcc/driverlib.lib(osc.c.obj)
 .text.NOROM_OSCHF_DebugGetExpectedAverageCrystalAmplitude
                0x0000000000000000       0x1c /home/runner/work/CatSneeze_toolkit/CatSneeze_toolkit/_ti_sdk/simplelink_cc13xx_cc26xx_sdk_8_32_00_07/source/ti/devices/cc13x2x7_cc26x2x7/driverlib/bin/gcc/driverlib.lib(osc.c.obj)
 .text.NOROM_OSCHF_DebugGetCrystalStartupTime
                0x0000000000000000       0xbc /home/runner/work/CatSneeze_toolkit/CatSneeze_toolkit/_ti_sdk/simplelink_cc13xx_cc26xx_sdk_8_32_00_07/source/ti/devices/cc13x2x7_cc26x2x7/driverlib/bin/gcc/driverlib.lib(osc.c.obj)
 .rodata        0x0000000000000000       0x70 /home/runner/work/CatSneeze_toolkit/CatSneeze_toolkit/_ti_sdk/simplelink_cc13xx_cc26xx_sdk_8_32_00_07/source/ti/devices/cc13x2x7_cc26x2x7/driverlib/bin/gcc/driverlib.lib(osc.c.obj)
 .text          0x0000000000000000        0x0 /home/runner/work/CatSneeze_toolkit/CatSneeze_toolkit/_ti_sdk/simplelink_cc13xx_cc26xx_sdk_8_32_00_07/source/ti/devices/cc13x2x7_cc26x2x7/driverlib/bin/gcc/driverlib.lib(prcm.c.obj)
 .data          0x0000000000000000        0x0 /home/runner/work/CatSneeze_toolkit/CatSneeze_toolkit/_ti_sdk/simplelink_cc13xx_cc26xx_sdk_8_32_00_07/source/ti/devices/cc13x2x7_cc26x2x7/driverlib/bin/gcc/driverlib.lib(prcm.c.obj)
 .bss           0x0000000000000000        0x0 /home/runner/work/CatSneeze_toolkit/CatSneeze_toolkit/_ti_sdk/simplelink_cc13xx_cc26xx_sdk_8_32_00_07/source/ti/devices/cc13x2x7_cc26x2x7/driverlib/bin/gcc/driverlib.lib(prcm.c.obj)
 .text.NOROM_PRCMInfClockConfigureSet
                0x0000000000000000       0x34 /home/runner/work/CatSneeze_toolkit/CatSneeze_toolkit/_ti_sdk/simplelink_cc13xx_cc26xx_sdk_8_32_00_07/source/ti/devices/cc13x2x7_cc26x2x7/driverlib/bin/gcc/driverlib.lib(prcm.c.obj)
 .text.NOROM_PRCMInfClockConfigureGet
                0x0000000000000000       0x30 /home/runner/work/CatSneeze_toolkit/CatSneeze_toolkit/_ti_sdk/simplelink_cc13xx_cc26xx_sdk_8_32_00_07/source/ti/devices/cc13x2x7_cc26x2x7/driverlib/bin/gcc/driverlib.lib(prcm.c.obj)
 .text.NOROM_PRCMAudioClockConfigSet
                0x0000000000000000       0x68 /home/runner/work/CatSneeze_toolkit/CatSneeze_toolkit/_ti_sdk/simplelink_cc13xx_cc26xx_sdk_8_32_00_07/source/ti/devices/cc13x2x7_cc26x2x7/driverlib/bin/gcc/driverlib.lib(prcm.c.obj)
 .text.NOROM_PRCMAudioClockConfigSetOverride
                0x0000000000000000       0x3c /home/runner/work/CatSneeze_toolkit/CatSneeze_toolkit/_ti_sdk/simplelink_cc13xx_cc26xx_sdk_8_32_00_07/source/ti/devices/cc13x2x7_cc26x2x7/driverlib/bin/gcc/driverlib.lib(prcm.c.obj)
 .text.PRCMAudioClockConfigOverride
                0x0000000000000000       0x38 /home/runner/work/CatSneeze_toolkit/CatSneeze_toolkit/_ti_sdk/simplelink_cc13xx_cc26xx_sdk_8_32_00_07/source/ti/devices/cc13x2x7_cc26x2x7/driverlib/bin/gcc/driverlib.lib(prcm.c.obj)
 .text.NOROM_PRCMAudioClockInternalSource
                0x0000000000000000       0x10 /home/runner/work/CatSneeze_toolkit/CatSneeze_toolkit/_ti_sdk/simplelink_cc13xx_cc26xx_sdk_8_32_00_07/source/ti/devices/cc13x2x7_cc26x2x7/driverlib/bin/gcc/driverlib.lib(prcm.c.obj)
 .text.NOROM_PRCMAudioClockExternalSource
                0x0000000000000000       0x10 /home/runner/work/CatSneeze_toolkit/CatSneeze_toolkit/_ti_sdk/simplelink_cc13xx_cc26xx_sdk_8_32_00_07/source/ti/devices/cc13x2x7_cc26x2x7/driverlib/bin/gcc/driverlib.lib(prcm.c.obj)
 .text.NOROM_PRCMPowerDomainOn
                0x0000000000000000       0x44 /home/runner/work/CatSneeze_toolkit/CatSneeze_toolkit/_ti_sdk/simplelink_cc13xx_cc26xx_sdk_8_32_00_07/source/ti/devices/cc13x2x7_cc26x2x7/driverlib/bin/gcc/driverlib.lib(prcm.c.obj)
 .text.NOROM_PRCMPowerDomainOff
                0x0000000000000000       0x44 /home/runner/work/CatSneeze_toolkit/CatSneeze_toolkit/_ti_sdk/simplelink_cc13xx_cc26xx_sdk_8_32_00_07/source/ti/devices/cc13x2x7_cc26x2x7/driverlib/bin/gcc/driverlib.lib(prcm.c.obj)
 .text.NOROM_PRCMPeripheralRunEnable
                0x0000000000000000       0x20 /home/runner/work/CatSneeze_toolkit/CatSneeze_toolkit/_ti_sdk/simplelink_cc13xx_cc26xx_sdk_8_32_00_07/source/ti/devices/cc13x2x7_cc26x2x7/driverlib/bin/gcc/driverlib.lib(prcm.c.obj)
 .text.NOROM_PRCMPeripheralRunDisable
                0x0000000000000000       0x20 /home/runner/work/CatSneeze_toolkit/CatSneeze_toolkit/_ti_sdk/simplelink_cc13xx_cc26xx_sdk_8_32_00_07/source/ti/devices/cc13x2x7_cc26x2x7/driverlib/bin/gcc/driverlib.lib(prcm.c.obj)
 .text.NOROM_PRCMPeripheralSleepEnable
                0x0000000000000000       0x20 /home/runner/work/CatSneeze_toolkit/CatSneeze_toolkit/_ti_sdk/simplelink_cc13xx_cc26xx_sdk_8_32_00_07/source/ti/devices/cc13x2x7_cc26x2x7/driverlib/bin/gcc/driverlib.lib(prcm.c.obj)
 .text.NOROM_PRCMPeripheralSleepDisable
                0x0000000000000000       0x20 /home/runner/work/CatSneeze_toolkit/CatSneeze_toolkit/_ti_sdk/simplelink_cc13xx_cc26xx_sdk_8_32_00_07/source/ti/devices/cc13x2x7_cc26x2x7/driverlib/bin/gcc/driverlib.lib(prcm.c.obj)
 .text.NOROM_PRCMPeripheralDeepSleepEnable
                0x0000000000000000       0x20 /home/runner/work/CatSneeze_toolkit/CatSneeze_toolkit/_ti_sdk/simplelink_cc13xx_cc26xx_sdk_8_32_00_07/source/ti/devices/cc13x2x7_cc26x2x7/driverlib/bin/gcc/driverlib.lib(prcm.c.obj)
 .text.NOROM_PRCMPeripheralDeepSleepDisable
                0x0000000000000000       0x20 /home/runner/work/CatSneeze_toolkit/CatSneeze_toolkit/_ti_sdk/simplelink_cc13xx_cc26xx_sdk_8_32_00_07/source/ti/devices/cc13x2x7_cc26x2x7/driverlib/bin/gcc/driverlib.lib(prcm.c.obj)
 .text.NOROM_PRCMDeepSleep
                0x0000000000000000       0x20 /home/runner/work/CatSneeze_toolkit/CatSneeze_toolkit/_ti_sdk/simplelink_cc13xx_cc26xx_sdk_8_32_00_07/source/ti/devices/cc13x2x7_cc26x2x7/driverlib/bin/gcc/driverlib.lib(prcm.c.obj)
 .rodata.CSWTCH.16
                0x0000000000000000       0x20 /home/runner/work/CatSneeze_toolkit/CatSneeze_toolkit/_ti_sdk/simplelink_cc13xx_cc26xx_sdk_8_32_00_07/source/ti/devices/cc13x2x7_cc26x2x7/driverlib/bin/gcc/driverlib.lib(prcm.c.obj)
 .rodata.CSWTCH.15
                0x0000000000000000       0x20 /home/runner/work/CatSneeze_toolkit/CatSneeze_toolkit/_ti_sdk/simplelink_cc13xx_cc26xx_sdk_8_32_00_07/source/ti/devices/cc13x2x7_cc26x2x7/driverlib/bin/gcc/driverlib.lib(prcm.c.obj)
 .rodata.CSWTCH.14
                0x0000000000000000       0x20 /home/runner/work/CatSneeze_toolkit/CatSneeze_toolkit/_ti_sdk/simplelink_cc13xx_cc26xx_sdk_8_32_00_07/source/ti/devices/cc13x2x7_cc26x2x7/driverlib/bin/gcc/driverlib.lib(prcm.c.obj)
 .rodata.CSWTCH.11
                0x0000000000000000       0x14 /home/runner/work/CatSneeze_toolkit/CatSneeze_toolkit/_ti_sdk/simplelink_cc13xx_cc26xx_sdk_8_32_00_07/source/ti/devices/cc13x2x7_cc26x2x7/driverlib/bin/gcc/driverlib.lib(prcm.c.obj)
 .rodata.g_pui32DCGCRegs
                0x0000000000000000       0x1c /home/runner/work/CatSneeze_toolkit/CatSneeze_toolkit/_ti_sdk/simplelink_cc13xx_cc26xx_sdk_8_32_00_07/source/ti/devices/cc13x2x7_cc26x2x7/driverlib/bin/gcc/driverlib.lib(prcm.c.obj)
 .rodata.g_pui32SCGCRegs
                0x0000000000000000       0x1c /home/runner/work/CatSneeze_toolkit/CatSneeze_toolkit/_ti_sdk/simplelink_cc13xx_cc26xx_sdk_8_32_00_07/source/ti/devices/cc13x2x7_cc26x2x7/driverlib/bin/gcc/driverlib.lib(prcm.c.obj)
 .rodata.g_pui32RCGCRegs
                0x0000000000000000       0x1c /home/runner/work/CatSneeze_toolkit/CatSneeze_toolkit/_ti_sdk/simplelink_cc13xx_cc26xx_sdk_8_32_00_07/source/ti/devices/cc13x2x7_cc26x2x7/driverlib/bin/gcc/driverlib.lib(prcm.c.obj)
 .text          0x0000000000000000        0x0 /home/runner/work/CatSneeze_toolkit/CatSneeze_toolkit/_ti_sdk/simplelink_cc13xx_cc26xx_sdk_8_32_00_07/source/ti/devices/cc13x2x7_cc26x2x7/driverlib/bin/gcc/driverlib.lib(setup.c.obj)
 .data          0x0000000000000000        0x0 /home/runner/work/CatSneeze_toolkit/CatSneeze_toolkit/_ti_sdk/simplelink_cc13xx_cc26xx_sdk_8_32_00_07/source/ti/devices/cc13x2x7_cc26x2x7/driverlib/bin/gcc/driverlib.lib(setup.c.obj)
 .bss           0x0000000000000000        0x0 /home/runner/work/CatSneeze_toolkit/CatSneeze_toolkit/_ti_sdk/simplelink_cc13xx_cc26xx_sdk_8_32_00_07/source/ti/devices/cc13x2x7_cc26x2x7/driverlib/bin/gcc/driverlib.lib(setup.c.obj)
 .text          0x0000000000000000        0x0 /home/runner/work/CatSneeze_toolkit/CatSneeze_toolkit/_ti_sdk/simplelink_cc13xx_cc26xx_sdk_8_32_00_07/source/ti/devices/cc13x2x7_cc26x2x7/driverlib/bin/gcc/driverlib.lib(sys_ctrl.c.obj)
 .data          0x0000000000000000        0x0 /home/runner/work/CatSneeze_toolkit/CatSneeze_toolkit/_ti_sdk/simplelink_cc13xx_cc26xx_sdk_8_32_00_07/source/ti/devices/cc13x2x7_cc26x2x7/driverlib/bin/gcc/driverlib.lib(sys_ctrl.c.obj)
 .bss           0x0000000000000000        0x0 /home/runner/work/CatSneeze_toolkit/CatSneeze_toolkit/_ti_sdk/simplelink_cc13xx_cc26xx_sdk_8_32_00_07/source/ti/devices/cc13x2x7_cc26x2x7/driverlib/bin/gcc/driverlib.lib(sys_ctrl.c.obj)
 .text.NOROM_SysCtrlShutdownWithAbort
                0x0000000000000000       0x6c /home/runner/work/CatSneeze_toolkit/CatSneeze_toolkit/_ti_sdk/simplelink_cc13xx_cc26xx_sdk_8_32_00_07/source/ti/devices/cc13x2x7_cc26x2x7/driverlib/bin/gcc/driverlib.lib(sys_ctrl.c.obj)
 .text.NOROM_SysCtrlShutdown
                0x0000000000000000        0xc /home/runner/work/CatSneeze_toolkit/CatSneeze_toolkit/_ti_sdk/simplelink_cc13xx_cc26xx_sdk_8_32_00_07/source/ti/devices/cc13x2x7_cc26x2x7/driverlib/bin/gcc/driverlib.lib(sys_ctrl.c.obj)
 .text.NOROM_SysCtrlSetRechargeBeforePowerDown
                0x0000000000000000       0x18 /home/runner/work/CatSneeze_toolkit/CatSneeze_toolkit/_ti_sdk/simplelink_cc13xx_cc26xx_sdk_8_32_00_07/source/ti/devices/cc13x2x7_cc26x2x7/driverlib/bin/gcc/driverlib.lib(sys_ctrl.c.obj)
 .text.NOROM_SysCtrlAdjustRechargeAfterPowerDown
                0x0000000000000000        0x4 /home/runner/work/CatSneeze_toolkit/CatSneeze_toolkit/_ti_sdk/simplelink_cc13xx_cc26xx_sdk_8_32_00_07/source/ti/devices/cc13x2x7_cc26x2x7/driverlib/bin/gcc/driverlib.lib(sys_ctrl.c.obj)
 .text.NOROM_SysCtrl_DCDC_VoltageConditionalControl
                0x0000000000000000       0x78 /home/runner/work/CatSneeze_toolkit/CatSneeze_toolkit/_ti_sdk/simplelink_cc13xx_cc26xx_sdk_8_32_00_07/source/ti/devices/cc13x2x7_cc26x2x7/driverlib/bin/gcc/driverlib.lib(sys_ctrl.c.obj)
 .text.NOROM_SysCtrlResetSourceGet
                0x0000000000000000       0x20 /home/runner/work/CatSneeze_toolkit/CatSneeze_toolkit/_ti_sdk/simplelink_cc13xx_cc26xx_sdk_8_32_00_07/source/ti/devices/cc13x2x7_cc26x2x7/driverlib/bin/gcc/driverlib.lib(sys_ctrl.c.obj)
 .text          0x0000000000000000        0x0 /home/runner/work/CatSneeze_toolkit/CatSneeze_toolkit/_ti_sdk/simplelink_cc13xx_cc26xx_sdk_8_32_00_07/source/ti/devices/cc13x2x7_cc26x2x7/driverlib/bin/gcc/driverlib.lib(aux_sysif.c.obj)
 .data          0x0000000000000000        0x0 /home/runner/work/CatSneeze_toolkit/CatSneeze_toolkit/_ti_sdk/simplelink_cc13xx_cc26xx_sdk_8_32_00_07/source/ti/devices/cc13x2x7_cc26x2x7/driverlib/bin/gcc/driverlib.lib(aux_sysif.c.obj)
 .bss           0x0000000000000000        0x0 /home/runner/work/CatSneeze_toolkit/CatSneeze_toolkit/_ti_sdk/simplelink_cc13xx_cc26xx_sdk_8_32_00_07/source/ti/devices/cc13x2x7_cc26x2x7/driverlib/bin/gcc/driverlib.lib(aux_sysif.c.obj)
 .text          0x0000000000000000       0xa0 /usr/lib/gcc/arm-none-eabi/10.3.1/thumb/v7e-m+fp/hard/libgcc.a(_aeabi_ldivmod.o)
 .data          0x0000000000000000        0x0 /usr/lib/gcc/arm-none-eabi/10.3.1/thumb/v7e-m+fp/hard/libgcc.a(_aeabi_ldivmod.o)
 .bss           0x0000000000000000        0x0 /usr/lib/gcc/arm-none-eabi/10.3.1/thumb/v7e-m+fp/hard/libgcc.a(_aeabi_ldivmod.o)
 .debug_line    0x0000000000000000       0x7e /usr/lib/gcc/arm-none-eabi/10.3.1/thumb/v7e-m+fp/hard/libgcc.a(_aeabi_ldivmod.o)
 .debug_info    0x0000000000000000       0x26 /usr/lib/gcc/arm-none-eabi/10.3.1/thumb/v7e-m+fp/hard/libgcc.a(_aeabi_ldivmod.o)
 .debug_abbrev  0x0000000000000000       0x14 /usr/lib/gcc/arm-none-eabi/10.3.1/thumb/v7e-m+fp/hard/libgcc.a(_aeabi_ldivmod.o)
 .debug_aranges
                0x0000000000000000       0x20 /usr/lib/gcc/arm-none-eabi/10.3.1/thumb/v7e-m+fp/hard/libgcc.a(_aeabi_ldivmod.o)
 .debug_str     0x0000000000000000       0xa6 /usr/lib/gcc/arm-none-eabi/10.3.1/thumb/v7e-m+fp/hard/libgcc.a(_aeabi_ldivmod.o)
 .debug_frame   0x0000000000000000       0x44 /usr/lib/gcc/arm-none-eabi/10.3.1/thumb/v7e-m+fp/hard/libgcc.a(_aeabi_ldivmod.o)
 .ARM.attributes
                0x0000000000000000       0x1e /usr/lib/gcc/arm-none-eabi/10.3.1/thumb/v7e-m+fp/hard/libgcc.a(_aeabi_ldivmod.o)
 .data          0x0000000000000000        0x0 /usr/lib/gcc/arm-none-eabi/10.3.1/thumb/v7e-m+fp/hard/libgcc.a(_aeabi_uldivmod.o)
 .bss           0x0000000000000000        0x0 /usr/lib/gcc/arm-none-eabi/10.3.1/thumb/v7e-m+fp/hard/libgcc.a(_aeabi_uldivmod.o)
 .data          0x0000000000000000        0x0 /usr/lib/gcc/arm-none-eabi/10.3.1/thumb/v7e-m+fp/hard/libgcc.a(_udivmoddi4.o)
 .bss           0x0000000000000000        0x0 /usr/lib/gcc/arm-none-eabi/10.3.1/thumb/v7e-m+fp/hard/libgcc.a(_udivmoddi4.o)
 .ARM.extab     0x0000000000000000        0x0 /usr/lib/gcc/arm-none-eabi/10.3.1/thumb/v7e-m+fp/hard/libgcc.a(_udivmoddi4.o)
 .data          0x0000000000000000        0x0 /usr/lib/gcc/arm-none-eabi/10.3.1/thumb/v7e-m+fp/hard/libgcc.a(_dvmd_tls.o)
 .bss           0x0000000000000000        0x0 /usr/lib/gcc/arm-none-eabi/10.3.1/thumb/v7e-m+fp/hard/libgcc.a(_dvmd_tls.o)
 .data          0x0000000000000000        0x0 /usr/lib/gcc/arm-none-eabi/10.3.1/../../../arm-none-eabi/lib/thumb/v7e-m+fp/hard/libc_nano.a(lib_a-atoi.o)
 .bss           0x0000000000000000        0x0 /usr/lib/gcc/arm-none-eabi/10.3.1/../../../arm-none-eabi/lib/thumb/v7e-m+fp/hard/libc_nano.a(lib_a-atoi.o)
 .text          0x0000000000000000        0x0 /usr/lib/gcc/arm-none-eabi/10.3.1/../../../arm-none-eabi/lib/thumb/v7e-m+fp/hard/libc_nano.a(lib_a-ctype_.o)
 .data          0x0000000000000000        0x0 /usr/lib/gcc/arm-none-eabi/10.3.1/../../../arm-none-eabi/lib/thumb/v7e-m+fp/hard/libc_nano.a(lib_a-ctype_.o)
 .bss           0x0000000000000000        0x0 /usr/lib/gcc/arm-none-eabi/10.3.1/../../../arm-none-eabi/lib/thumb/v7e-m+fp/hard/libc_nano.a(lib_a-ctype_.o)
 .text          0x0000000000000000       0x20 /usr/lib/gcc/arm-none-eabi/10.3.1/../../../arm-none-eabi/lib/thumb/v7e-m+fp/hard/libc_nano.a(lib_a-malloc.o)
 .data          0x0000000000000000        0x0 /usr/lib/gcc/arm-none-eabi/10.3.1/../../../arm-none-eabi/lib/thumb/v7e-m+fp/hard/libc_nano.a(lib_a-malloc.o)
 .bss           0x0000000000000000        0x0 /usr/lib/gcc/arm-none-eabi/10.3.1/../../../arm-none-eabi/lib/thumb/v7e-m+fp/hard/libc_nano.a(lib_a-malloc.o)
 .debug_info    0x0000000000000000      0x832 /usr/lib/gcc/arm-none-eabi/10.3.1/../../../arm-none-eabi/lib/thumb/v7e-m+fp/hard/libc_nano.a(lib_a-malloc.o)
 .debug_abbrev  0x0000000000000000      0x1b6 /usr/lib/gcc/arm-none-eabi/10.3.1/../../../arm-none-eabi/lib/thumb/v7e-m+fp/hard/libc_nano.a(lib_a-malloc.o)
 .debug_loc     0x0000000000000000       0x64 /usr/lib/gcc/arm-none-eabi/10.3.1/../../../arm-none-eabi/lib/thumb/v7e-m+fp/hard/libc_nano.a(lib_a-malloc.o)
 .debug_aranges
                0x0000000000000000       0x20 /usr/lib/gcc/arm-none-eabi/10.3.1/../../../arm-none-eabi/lib/thumb/v7e-m+fp/hard/libc_nano.a(lib_a-malloc.o)
 .debug_line    0x0000000000000000      0x15f /usr/lib/gcc/arm-none-eabi/10.3.1/../../../arm-none-eabi/lib/thumb/v7e-m+fp/hard/libc_nano.a(lib_a-malloc.o)
 .debug_str     0x0000000000000000      0x533 /usr/lib/gcc/arm-none-eabi/10.3.1/../../../arm-none-eabi/lib/thumb/v7e-m+fp/hard/libc_nano.a(lib_a-malloc.o)
 .comment       0x0000000000000000       0x34 /usr/lib/gcc/arm-none-eabi/10.3.1/../../../arm-none-eabi/lib/thumb/v7e-m+fp/hard/libc_nano.a(lib_a-malloc.o)
 .debug_frame   0x0000000000000000       0x30 /usr/lib/gcc/arm-none-eabi/10.3.1/../../../arm-none-eabi/lib/thumb/v7e-m+fp/hard/libc_nano.a(lib_a-malloc.o)
 .ARM.attributes
                0x0000000000000000       0x34 /usr/lib/gcc/arm-none-eabi/10.3.1/../../../arm-none-eabi/lib/thumb/v7e-m+fp/hard/libc_nano.a(lib_a-malloc.o)
 .data          0x0000000000000000        0x0 /usr/lib/gcc/arm-none-eabi/10.3.1/../../../arm-none-eabi/lib/thumb/v7e-m+fp/hard/libc_nano.a(lib_a-memcpy.o)
 .bss           0x0000000000000000        0x0 /usr/lib/gcc/arm-none-eabi/10.3.1/../../../arm-none-eabi/lib/thumb/v7e-m+fp/hard/libc_nano.a(lib_a-memcpy.o)
 .data          0x0000000000000000        0x0 /usr/lib/gcc/arm-none-eabi/10.3.1/../../../arm-none-eabi/lib/thumb/v7e-m+fp/hard/libc_nano.a(lib_a-memset.o)
 .bss           0x0000000000000000        0x0 /usr/lib/gcc/arm-none-eabi/10.3.1/../../../arm-none-eabi/lib/thumb/v7e-m+fp/hard/libc_nano.a(lib_a-memset.o)
 .data          0x0000000000000000        0x0 /usr/lib/gcc/arm-none-eabi/10.3.1/../../../arm-none-eabi/lib/thumb/v7e-m+fp/hard/libc_nano.a(lib_a-nano-freer.o)
 .bss           0x0000000000000000        0x0 /usr/lib/gcc/arm-none-eabi/10.3.1/../../../arm-none-eabi/lib/thumb/v7e-m+fp/hard/libc_nano.a(lib_a-nano-freer.o)
 .data          0x0000000000000000        0x0 /usr/lib/gcc/arm-none-eabi/10.3.1/../../../arm-none-eabi/lib/thumb/v7e-m+fp/hard/libc_nano.a(lib_a-nano-mallocr.o)
 .data          0x0000000000000000        0x0 /usr/lib/gcc/arm-none-eabi/10.3.1/../../../arm-none-eabi/lib/thumb/v7e-m+fp/hard/libc_nano.a(lib_a-sbrkr.o)
 .bss           0x0000000000000000        0x0 /usr/lib/gcc/arm-none-eabi/10.3.1/../../../arm-none-eabi/lib/thumb/v7e-m+fp/hard/libc_nano.a(lib_a-sbrkr.o)
 .data          0x0000000000000000        0x0 /usr/lib/gcc/arm-none-eabi/10.3.1/../../../arm-none-eabi/lib/thumb/v7e-m+fp/hard/libc_nano.a(lib_a-strchr.o)
 .bss           0x0000000000000000        0x0 /usr/lib/gcc/arm-none-eabi/10.3.1/../../../arm-none-eabi/lib/thumb/v7e-m+fp/hard/libc_nano.a(lib_a-strchr.o)
 .data          0x0000000000000000        0x0 /usr/lib/gcc/arm-none-eabi/10.3.1/../../../arm-none-eabi/lib/thumb/v7e-m+fp/hard/libc_nano.a(lib_a-strcmp.o)
 .bss           0x0000000000000000        0x0 /usr/lib/gcc/arm-none-eabi/10.3.1/../../../arm-none-eabi/lib/thumb/v7e-m+fp/hard/libc_nano.a(lib_a-strcmp.o)
 .data          0x0000000000000000        0x0 /usr/lib/gcc/arm-none-eabi/10.3.1/../../../arm-none-eabi/lib/thumb/v7e-m+fp/hard/libc_nano.a(lib_a-strlen.o)
 .bss           0x0000000000000000        0x0 /usr/lib/gcc/arm-none-eabi/10.3.1/../../../arm-none-eabi/lib/thumb/v7e-m+fp/hard/libc_nano.a(lib_a-strlen.o)
 .data          0x0000000000000000        0x0 /usr/lib/gcc/arm-none-eabi/10.3.1/../../../arm-none-eabi/lib/thumb/v7e-m+fp/hard/libc_nano.a(lib_a-strncmp.o)
 .bss           0x0000000000000000        0x0 /usr/lib/gcc/arm-none-eabi/10.3.1/../../../arm-none-eabi/lib/thumb/v7e-m+fp/hard/libc_nano.a(lib_a-strncmp.o)
 .data          0x0000000000000000        0x0 /usr/lib/gcc/arm-none-eabi/10.3.1/../../../arm-none-eabi/lib/thumb/v7e-m+fp/hard/libc_nano.a(lib_a-strtol.o)
 .bss           0x0000000000000000        0x0 /usr/lib/gcc/arm-none-eabi/10.3.1/../../../arm-none-eabi/lib/thumb/v7e-m+fp/hard/libc_nano.a(lib_a-strtol.o)
 .data          0x0000000000000000        0x0 /usr/lib/gcc/arm-none-eabi/10.3.1/../../../arm-none-eabi/lib/thumb/v7e-m+fp/hard/libc_nano.a(lib_a-vsnprintf.o)
 .bss           0x0000000000000000        0x0 /usr/lib/gcc/arm-none-eabi/10.3.1/../../../arm-none-eabi/lib/thumb/v7e-m+fp/hard/libc_nano.a(lib_a-vsnprintf.o)
 .data          0x0000000000000000        0x0 /usr/lib/gcc/arm-none-eabi/10.3.1/../../../arm-none-eabi/lib/thumb/v7e-m+fp/hard/libc_nano.a(lib_a-errno.o)
 .bss           0x0000000000000000        0x0 /usr/lib/gcc/arm-none-eabi/10.3.1/../../../arm-none-eabi/lib/thumb/v7e-m+fp/hard/libc_nano.a(lib_a-errno.o)
 .text          0x0000000000000000        0x0 /usr/lib/gcc/arm-none-eabi/10.3.1/../../../arm-none-eabi/lib/thumb/v7e-m+fp/hard/libc_nano.a(lib_a-impure.o)
 .bss           0x0000000000000000        0x0 /usr/lib/gcc/arm-none-eabi/10.3.1/../../../arm-none-eabi/lib/thumb/v7e-m+fp/hard/libc_nano.a(lib_a-impure.o)
 .rodata        0x0000000000000000        0x4 /usr/lib/gcc/arm-none-eabi/10.3.1/../../../arm-none-eabi/lib/thumb/v7e-m+fp/hard/libc_nano.a(lib_a-impure.o)
 .data          0x0000000000000000        0x0 /usr/lib/gcc/arm-none-eabi/10.3.1/../../../arm-none-eabi/lib/thumb/v7e-m+fp/hard/libc_nano.a(lib_a-mlock.o)
 .bss           0x0000000000000000        0x0 /usr/lib/gcc/arm-none-eabi/10.3.1/../../../arm-none-eabi/lib/thumb/v7e-m+fp/hard/libc_nano.a(lib_a-mlock.o)
 .data          0x0000000000000000        0x0 /usr/lib/gcc/arm-none-eabi/10.3.1/../../../arm-none-eabi/lib/thumb/v7e-m+fp/hard/libc_nano.a(lib_a-nano-svfprintf.o)
 .bss           0x0000000000000000        0x0 /usr/lib/gcc/arm-none-eabi/10.3.1/../../../arm-none-eabi/lib/thumb/v7e-m+fp/hard/libc_nano.a(lib_a-nano-svfprintf.o)
 .data          0x0000000000000000        0x0 /usr/lib/gcc/arm-none-eabi/10.3.1/../../../arm-none-eabi/lib/thumb/v7e-m+fp/hard/libc_nano.a(lib_a-nano-vfprintf_i.o)
 .bss           0x0000000000000000        0x0 /usr/lib/gcc/arm-none-eabi/10.3.1/../../../arm-none-eabi/lib/thumb/v7e-m+fp/hard/libc_nano.a(lib_a-nano-vfprintf_i.o)
 .text          0x0000000000000000      0x114 /usr/lib/gcc/arm-none-eabi/10.3.1/../../../arm-none-eabi/lib/thumb/v7e-m+fp/hard/libc_nano.a(lib_a-reent.o)
 .data          0x0000000000000000        0x0 /usr/lib/gcc/arm-none-eabi/10.3.1/../../../arm-none-eabi/lib/thumb/v7e-m+fp/hard/libc_nano.a(lib_a-reent.o)
 .data          0x0000000000000000        0x0 /usr/lib/gcc/arm-none-eabi/10.3.1/../../../arm-none-eabi/lib/thumb/v7e-m+fp/hard/libc_nano.a(lib_a-memchr.o)
 .bss           0x0000000000000000        0x0 /usr/lib/gcc/arm-none-eabi/10.3.1/../../../arm-none-eabi/lib/thumb/v7e-m+fp/hard/libc_nano.a(lib_a-memchr.o)
 .data          0x0000000000000000        0x0 /usr/lib/gcc/arm-none-eabi/10.3.1/../../../arm-none-eabi/lib/thumb/v7e-m+fp/hard/libc_nano.a(lib_a-memmove.o)
 .bss           0x0000000000000000        0x0 /usr/lib/gcc/arm-none-eabi/10.3.1/../../../arm-none-eabi/lib/thumb/v7e-m+fp/hard/libc_nano.a(lib_a-memmove.o)
 .data          0x0000000000000000        0x0 /usr/lib/gcc/arm-none-eabi/10.3.1/../../../arm-none-eabi/lib/thumb/v7e-m+fp/hard/libc_nano.a(lib_a-nano-reallocr.o)
 .bss           0x0000000000000000        0x0 /usr/lib/gcc/arm-none-eabi/10.3.1/../../../arm-none-eabi/lib/thumb/v7e-m+fp/hard/libc_nano.a(lib_a-nano-reallocr.o)
 .data          0x0000000000000000        0x0 /usr/lib/gcc/arm-none-eabi/10.3.1/../../../arm-none-eabi/lib/thumb/v7e-m+fp/hard/libc_nano.a(lib_a-nano-msizer.o)
 .bss           0x0000000000000000        0x0 /usr/lib/gcc/arm-none-eabi/10.3.1/../../../arm-none-eabi/lib/thumb/v7e-m+fp/hard/libc_nano.a(lib_a-nano-msizer.o)
 .data          0x0000000000000000        0x0 /usr/lib/gcc/arm-none-eabi/10.3.1/../../../arm-none-eabi/lib/thumb/v7e-m+fp/hard/libnosys.a(sbrk.o)

Memory Configuration

Name             Origin             Length             Attributes
FLASH            0x0000000000000000 0x00000000000affa8 xr
FLASH_CCFG       0x00000000000affa8 0x0000000000000058 r
SRAM             0x0000000020000000 0x0000000000024000 xrw
GPRAM            0x0000000011000000 0x0000000000002000 xrw
LOG_DATA         0x0000000090000000 0x0000000000040000 r
LOG_PTR          0x0000000094000008 0x0000000000040000 r
*default*        0x0000000000000000 0xffffffffffffffff

Linker script and memory map

LOAD CMakeFiles/nrf24_sniffer.dir/nrf24_sniffer.c.obj
LOAD CMakeFiles/nrf24_sniffer.dir/smartrf_settings.c.obj
LOAD CMakeFiles/nrf24_sniffer.dir/home/runner/work/CatSneeze_toolkit/CatSneeze_toolkit/_ti_sdk/simplelink_cc13xx_cc26xx_sdk_8_32_00_07/source/ti/devices/cc13x2x7_cc26x2x7/startup_files/startup_gcc.c.obj
LOAD CMakeFiles/nrf24_sniffer.dir/home/runner/work/CatSneeze_toolkit/CatSneeze_toolkit/_ti_sdk/simplelink_cc13xx_cc26xx_sdk_8_32_00_07/source/ti/devices/cc13x2x7_cc26x2x7/startup_files/ccfg.c.obj
LOAD CMakeFiles/nrf24_sniffer.dir/syscfg_pregenerated/ti_drivers_config.c.obj
START GROUP
LOAD /home/runner/work/CatSneeze_toolkit/CatSneeze_toolkit/_ti_sdk/simplelink_cc13xx_cc26xx_sdk_8_32_00_07/source/ti/drivers/rf/lib/gcc/m4f/rf_multiMode_cc13x2.a
LOAD /home/runner/work/CatSneeze_toolkit/CatSneeze_toolkit/_ti_sdk/simplelink_cc13xx_cc26xx_sdk_8_32_00_07/source/ti/drivers/lib/gcc/m4f/drivers_cc13x2x7.a
LOAD /home/runner/work/CatSneeze_toolkit/CatSneeze_toolkit/_ti_sdk/simplelink_cc13xx_cc26xx_sdk_8_32_00_07/kernel/nortos/lib/gcc/m4f/nortos_cc13x2x7.a
LOAD /home/runner/work/CatSneeze_toolkit/CatSneeze_toolkit/_ti_sdk/simplelink_cc13xx_cc26xx_sdk_8_32_00_07/source/ti/devices/cc13x2x7_cc26x2x7/driverlib/bin/gcc/driverlib.lib
LOAD /usr/lib/gcc/arm-none-eabi/10.3.1/thumb/v7e-m+fp/hard/libgcc.a
LOAD /usr/lib/gcc/arm-none-eabi/10.3.1/../../../arm-none-eabi/lib/thumb/v7e-m+fp/hard/libc_nano.a
LOAD /usr/lib/gcc/arm-none-eabi/10.3.1/../../../arm-none-eabi/lib/thumb/v7e-m+fp/hard/libm.a
END GROUP
START GROUP
LOAD /usr/lib/gcc/arm-none-eabi/10.3.1/thumb/v7e-m+fp/hard/libgcc.a
LOAD /usr/lib/gcc/arm-none-eabi/10.3.1/../../../arm-none-eabi/lib/thumb/v7e-m+fp/hard/libc_nano.a
END GROUP
START GROUP
LOAD /usr/lib/gcc/arm-none-eabi/10.3.1/thumb/v7e-m+fp/hard/libgcc.a
LOAD /usr/lib/gcc/arm-none-eabi/10.3.1/../../../arm-none-eabi/lib/thumb/v7e-m+fp/hard/libc_nano.a
LOAD /usr/lib/gcc/arm-none-eabi/10.3.1/../../../arm-none-eabi/lib/thumb/v7e-m+fp/hard/libnosys.a
END GROUP
START GROUP
LOAD /usr/lib/gcc/arm-none-eabi/10.3.1/thumb/v7e-m+fp/hard/libgcc.a
LOAD /usr/lib/gcc/arm-none-eabi/10.3.1/../../../arm-none-eabi/lib/thumb/v7e-m+fp/hard/libc_nano.a
LOAD /usr/lib/gcc/arm-none-eabi/10.3.1/../../../arm-none-eabi/lib/thumb/v7e-m+fp/hard/libnosys.a
END GROUP
                0x0000000000000400                STACKSIZE = 0x400
                0x0000000000004000                HEAPSIZE = 0x4000
                0x0000000000000000                PROVIDE (_resetVecs_base_address = DEFINED (_resetVecs_base_address)?_resetVecs_base_address:0x0)

.resetVecs      0x0000000000000000       0xd8
 *(.resetVecs)
 .resetVecs     0x0000000000000000       0xd8 CMakeFiles/nrf24_sniffer.dir/home/runner/work/CatSneeze_toolkit/CatSneeze_toolkit/_ti_sdk/simplelink_cc13xx_cc26xx_sdk_8_32_00_07/source/ti/devices/cc13x2x7_cc26x2x7/startup_files/startup_gcc.c.obj
                0x0000000000000000                g_pfnVectors

.ramVecs        0x0000000020000000       0xd8
 *(.ramVecs)
 .ramVecs       0x0000000020000000       0xd8 /home/runner/work/CatSneeze_toolkit/CatSneeze_toolkit/_ti_sdk/simplelink_cc13xx_cc26xx_sdk_8_32_00_07/source/ti/devices/cc13x2x7_cc26x2x7/driverlib/bin/gcc/driverlib.lib(interrupt.c.obj)
                0x0000000020001800                UDMACC26XX_CONFIG_BASE = 0x20001800
                0x0000000020001810                DMA_UART0_RX_CONTROL_TABLE_ENTRY_ADDRESS = (UDMACC26XX_CONFIG_BASE + 0x10)
                0x0000000020001820                DMA_UART0_TX_CONTROL_TABLE_ENTRY_ADDRESS = (UDMACC26XX_CONFIG_BASE + 0x20)
                0x0000000020001830                DMA_SPI0_RX_CONTROL_TABLE_ENTRY_ADDRESS = (UDMACC26XX_CONFIG_BASE + 0x30)
                0x0000000020001840                DMA_SPI0_TX_CONTROL_TABLE_ENTRY_ADDRESS = (UDMACC26XX_CONFIG_BASE + 0x40)
                0x0000000020001850                DMA_UART1_RX_CONTROL_TABLE_ENTRY_ADDRESS = (UDMACC26XX_CONFIG_BASE + 0x50)
                0x0000000020001860                DMA_UART1_TX_CONTROL_TABLE_ENTRY_ADDRESS = (UDMACC26XX_CONFIG_BASE + 0x60)
                0x0000000020001870                DMA_ADC_PRI_CONTROL_TABLE_ENTRY_ADDRESS = (UDMACC26XX_CONFIG_BASE + 0x70)
                0x0000000020001890                DMA_GPT0A_PRI_CONTROL_TABLE_ENTRY_ADDRESS = (UDMACC26XX_CONFIG_BASE + 0x90)
                0x0000000020001900                DMA_SPI1_RX_CONTROL_TABLE_ENTRY_ADDRESS = (UDMACC26XX_CONFIG_BASE + 0x100)
                0x0000000020001910                DMA_SPI1_TX_CONTROL_TABLE_ENTRY_ADDRESS = (UDMACC26XX_CONFIG_BASE + 0x110)
                0x0000000020001a10                DMA_UART0_RX_ALT_CONTROL_TABLE_ENTRY_ADDRESS = (UDMACC26XX_CONFIG_BASE + 0x210)
                0x0000000020001a20                DMA_UART0_TX_ALT_CONTROL_TABLE_ENTRY_ADDRESS = (UDMACC26XX_CONFIG_BASE + 0x220)
                0x0000000020001a30                DMA_SPI0_RX_ALT_CONTROL_TABLE_ENTRY_ADDRESS = (UDMACC26XX_CONFIG_BASE + 0x230)
                0x0000000020001a40                DMA_SPI0_TX_ALT_CONTROL_TABLE_ENTRY_ADDRESS = (UDMACC26XX_CONFIG_BASE + 0x240)
                0x0000000020001a50                DMA_UART1_RX_ALT_CONTROL_TABLE_ENTRY_ADDRESS = (UDMACC26XX_CONFIG_BASE + 0x250)
                0x0000000020001a60                DMA_UART1_TX_ALT_CONTROL_TABLE_ENTRY_ADDRESS = (UDMACC26XX_CONFIG_BASE + 0x260)
                0x0000000020001a70                DMA_ADC_ALT_CONTROL_TABLE_ENTRY_ADDRESS = (UDMACC26XX_CONFIG_BASE + 0x270)
                0x0000000020001a90                DMA_GPT0A_ALT_CONTROL_TABLE_ENTRY_ADDRESS = (UDMACC26XX_CONFIG_BASE + 0x290)
                0x0000000020001b00                DMA_SPI1_RX_ALT_CONTROL_TABLE_ENTRY_ADDRESS = (UDMACC26XX_CONFIG_BASE + 0x300)
                0x0000000020001b10                DMA_SPI1_TX_ALT_CONTROL_TABLE_ENTRY_ADDRESS = (UDMACC26XX_CONFIG_BASE + 0x310)
                0x0000000000000000                UDMACC26XX_uart0RxControlTableEntry_is_placed = 0x0

.dmaUart0RxControlTableEntry
 *(.dmaUart0RxControlTableEntry)
                0x0000000000000000                UDMACC26XX_uart0TxControlTableEntry_is_placed = 0x0

.dmaUart0TxControlTableEntry
 *(.dmaUart0TxControlTableEntry)
                0x0000000000000000                UDMACC26XX_dmaSpi0RxControlTableEntry_is_placed = 0x0

.dmaSpi0RxControlTableEntry
 *(.dmaSpi0RxControlTableEntry)
                0x0000000000000000                UDMACC26XX_dmaSpi0TxControlTableEntry_is_placed = 0x0

.dmaSpi0TxControlTableEntry
 *(.dmaSpi0TxControlTableEntry)
                0x0000000000000000                UDMACC26XX_uart1RxControlTableEntry_is_placed = 0x0

.dmaUart1RxControlTableEntry
 *(.dmaUart1RxControlTableEntry)
                0x0000000000000000                UDMACC26XX_uart1TxControlTableEntry_is_placed = 0x0

.dmaUart1TxControlTableEntry
 *(.dmaUart1TxControlTableEntry)
                0x0000000000000000                UDMACC26XX_dmaADCPriControlTableEntry_is_placed = 0x0

.dmaADCPriControlTableEntry
 *(.dmaADCPriControlTableEntry)
                0x0000000000000000                UDMACC26XX_dmaGPT0APriControlTableEntry_is_placed = 0x0

.dmaGPT0APriControlTableEntry
 *(.dmaGPT0APriControlTableEntry)
                0x0000000000000000                UDMACC26XX_dmaSpi1RxControlTableEntry_is_placed = 0x0

.dmaSpi1RxControlTableEntry
 *(.dmaSpi1RxControlTableEntry)
                0x0000000000000000                UDMACC26XX_dmaSpi1TxControlTableEntry_is_placed = 0x0

.dmaSpi1TxControlTableEntry
 *(.dmaSpi1TxControlTableEntry)
                0x0000000000000000                UDMACC26XX_uart0RxAltControlTableEntry_is_placed = 0x0

.dmaUart0RxAltControlTableEntry
 *(.dmaUart0RxAltControlTableEntry)
                0x0000000000000000                UDMACC26XX_uart0TxAltControlTableEntry_is_placed = 0x0

.dmaUart0TxAltControlTableEntry
 *(.dmaUart0TxAltControlTableEntry)
                0x0000000000000000                UDMACC26XX_dmaSpi0RxAltControlTableEntry_is_placed = 0x0

.dmaSpi0RxAltControlTableEntry
 *(.dmaSpi0RxAltControlTableEntry)
                0x0000000000000000                UDMACC26XX_dmaSpi0TxAltControlTableEntry_is_placed = 0x0

.dmaSpi0TxAltControlTableEntry
 *(.dmaSpi0TxAltControlTableEntry)
                0x0000000000000000                UDMACC26XX_uart1RxAltControlTableEntry_is_placed = 0x0

.dmaUart1RxAltControlTableEntry
 *(.dmaUart1RxAltControlTableEntry)
                0x0000000000000000                UDMACC26XX_uart1TxAltControlTableEntry_is_placed = 0x0

.dmaUart1TxAltControlTableEntry
 *(.dmaUart1TxAltControlTableEntry)
                0x0000000000000000                UDMACC26XX_dmaADCAltControlTableEntry_is_placed = 0x0

.dmaADCAltControlTableEntry
 *(.dmaADCAltControlTableEntry)
                0x0000000000000000                UDMACC26XX_dmaGPT0AAltControlTableEntry_is_placed = 0x0

.dmaGPT0AAltControlTableEntry
 *(.dmaGPT0AAltControlTableEntry)
                0x0000000000000000                UDMACC26XX_dmaSpi1RxAltControlTableEntry_is_placed = 0x0

.dmaSpi1RxAltControlTableEntry
 *(.dmaSpi1RxAltControlTableEntry)
                0x0000000000000000                UDMACC26XX_dmaSpi1TxAltControlTableEntry_is_placed = 0x0

.dmaSpi1TxAltControlTableEntry
 *(.dmaSpi1TxAltControlTableEntry)

.text           0x0000000000000100     0x7cb0
 CREATE_OBJECT_SYMBOLS
 *(.text)
 .text          0x0000000000000100       0x30 /usr/lib/gcc/arm-none-eabi/10.3.1/thumb/v7e-m+fp/hard/libgcc.a(_aeabi_uldivmod.o)
                0x0000000000000100                __aeabi_uldivmod
 .text          0x0000000000000130      0x2d0 /usr/lib/gcc/arm-none-eabi/10.3.1/thumb/v7e-m+fp/hard/libgcc.a(_udivmoddi4.o)
                0x0000000000000130                __udivmoddi4
 .text          0x0000000000000400        0x4 /usr/lib/gcc/arm-none-eabi/10.3.1/thumb/v7e-m+fp/hard/libgcc.a(_dvmd_tls.o)
                0x0000000000000400                __aeabi_ldiv0
                0x0000000000000400                __aeabi_idiv0
 .text          0x0000000000000404       0x10 /usr/lib/gcc/arm-none-eabi/10.3.1/../../../arm-none-eabi/lib/thumb/v7e-m+fp/hard/libc_nano.a(lib_a-atoi.o)
                0x0000000000000404                atoi
                0x000000000000040c                _atoi_r
 .text          0x0000000000000414      0x134 /usr/lib/gcc/arm-none-eabi/10.3.1/../../../arm-none-eabi/lib/thumb/v7e-m+fp/hard/libc_nano.a(lib_a-memcpy.o)
                0x0000000000000414                memcpy
 .text          0x0000000000000548       0xa4 /usr/lib/gcc/arm-none-eabi/10.3.1/../../../arm-none-eabi/lib/thumb/v7e-m+fp/hard/libc_nano.a(lib_a-memset.o)
                0x0000000000000548                memset
 .text          0x00000000000005ec       0xc4 /usr/lib/gcc/arm-none-eabi/10.3.1/../../../arm-none-eabi/lib/thumb/v7e-m+fp/hard/libc_nano.a(lib_a-nano-freer.o)
                0x00000000000005ec                _free_r
 .text          0x00000000000006b0       0xb4 /usr/lib/gcc/arm-none-eabi/10.3.1/../../../arm-none-eabi/lib/thumb/v7e-m+fp/hard/libc_nano.a(lib_a-nano-mallocr.o)
                0x00000000000006b0                _malloc_r
 .text          0x0000000000000764       0x24 /usr/lib/gcc/arm-none-eabi/10.3.1/../../../arm-none-eabi/lib/thumb/v7e-m+fp/hard/libc_nano.a(lib_a-sbrkr.o)
                0x0000000000000764                _sbrk_r
 .text          0x0000000000000788       0xcc /usr/lib/gcc/arm-none-eabi/10.3.1/../../../arm-none-eabi/lib/thumb/v7e-m+fp/hard/libc_nano.a(lib_a-strchr.o)
                0x0000000000000788                strchr
 *fill*         0x0000000000000854        0xc 
 .text          0x0000000000000860      0x2dc /usr/lib/gcc/arm-none-eabi/10.3.1/../../../arm-none-eabi/lib/thumb/v7e-m+fp/hard/libc_nano.a(lib_a-strcmp.o)
                0x0000000000000868                strcmp
 *fill*         0x0000000000000b3c        0x4 
 .text          0x0000000000000b40       0xdc /usr/lib/gcc/arm-none-eabi/10.3.1/../../../arm-none-eabi/lib/thumb/v7e-m+fp/hard/libc_nano.a(lib_a-strlen.o)
                0x0000000000000b40                strlen
 .text          0x0000000000000c1c       0x80 /usr/lib/gcc/arm-none-eabi/10.3.1/../../../arm-none-eabi/lib/thumb/v7e-m+fp/hard/libc_nano.a(lib_a-strncmp.o)
                0x0000000000000c1c                strncmp
 .text          0x0000000000000c9c      0x188 /usr/lib/gcc/arm-none-eabi/10.3.1/../../../arm-none-eabi/lib/thumb/v7e-m+fp/hard/libc_nano.a(lib_a-strtol.o)
                0x0000000000000dbc                _strtol_r
                0x0000000000000dd4                strtol_l
                0x0000000000000dfc                strtol
 .text          0x0000000000000e24       0xe0 /usr/lib/gcc/arm-none-eabi/10.3.1/../../../arm-none-eabi/lib/thumb/v7e-m+fp/hard/libc_nano.a(lib_a-vsnprintf.o)
                0x0000000000000e24                vsnprintf
                0x0000000000000e24                vsniprintf
                0x0000000000000e94                _vsnprintf_r
                0x0000000000000e94                _vsniprintf_r
 .text          0x0000000000000f04        0xc /usr/lib/gcc/arm-none-eabi/10.3.1/../../../arm-none-eabi/lib/thumb/v7e-m+fp/hard/libc_nano.a(lib_a-errno.o)
                0x0000000000000f04                __errno
 .text          0x0000000000000f10        0x8 /usr/lib/gcc/arm-none-eabi/10.3.1/../../../arm-none-eabi/lib/thumb/v7e-m+fp/hard/libc_nano.a(lib_a-mlock.o)
                0x0000000000000f10                __malloc_lock
                0x0000000000000f14                __malloc_unlock
 .text          0x0000000000000f18      0x3f0 /usr/lib/gcc/arm-none-eabi/10.3.1/../../../arm-none-eabi/lib/thumb/v7e-m+fp/hard/libc_nano.a(lib_a-nano-svfprintf.o)
                0x0000000000000f18                __ssputs_r
                0x0000000000000fdc                __ssprint_r
                0x00000000000010d4                _svfprintf_r
                0x00000000000010d4                _svfiprintf_r
 .text          0x0000000000001308      0x3dc /usr/lib/gcc/arm-none-eabi/10.3.1/../../../arm-none-eabi/lib/thumb/v7e-m+fp/hard/libc_nano.a(lib_a-nano-vfprintf_i.o)
                0x0000000000001308                _printf_common
                0x0000000000001434                _printf_i
 *fill*         0x00000000000016e4        0xc 
 .text          0x00000000000016f0       0xa0 /usr/lib/gcc/arm-none-eabi/10.3.1/../../../arm-none-eabi/lib/thumb/v7e-m+fp/hard/libc_nano.a(lib_a-memchr.o)
                0x00000000000016f0                memchr
 .text          0x0000000000001790       0xf8 /usr/lib/gcc/arm-none-eabi/10.3.1/../../../arm-none-eabi/lib/thumb/v7e-m+fp/hard/libc_nano.a(lib_a-memmove.o)
                0x0000000000001790                memmove
 .text          0x0000000000001888       0x50 /usr/lib/gcc/arm-none-eabi/10.3.1/../../../arm-none-eabi/lib/thumb/v7e-m+fp/hard/libc_nano.a(lib_a-nano-reallocr.o)
                0x0000000000001888                _realloc_r
 .text          0x00000000000018d8       0x14 /usr/lib/gcc/arm-none-eabi/10.3.1/../../../arm-none-eabi/lib/thumb/v7e-m+fp/hard/libc_nano.a(lib_a-nano-msizer.o)
                0x00000000000018d8                _malloc_usable_size_r
 .text          0x00000000000018ec       0x1c /usr/lib/gcc/arm-none-eabi/10.3.1/../../../arm-none-eabi/lib/thumb/v7e-m+fp/hard/libnosys.a(sbrk.o)
                0x00000000000018ec                _sbrk
 *(.text.*)
 .text.esb_crc16
                0x0000000000001908       0x34 CMakeFiles/nrf24_sniffer.dir/nrf24_sniffer.c.obj
 .text.uart_read_callback
                0x000000000000193c       0x6c CMakeFiles/nrf24_sniffer.dir/nrf24_sniffer.c.obj
 .text.uart_puts
                0x00000000000019a8       0x20 CMakeFiles/nrf24_sniffer.dir/nrf24_sniffer.c.obj
 .text.uart_printf
                0x00000000000019c8       0x26 CMakeFiles/nrf24_sniffer.dir/nrf24_sniffer.c.obj
 .text.parse_hex_addr.part.0
                0x00000000000019ee       0x38 CMakeFiles/nrf24_sniffer.dir/nrf24_sniffer.c.obj
 *fill*         0x0000000000001a26        0x2 
 .text.rf_tx_frame
                0x0000000000001a28       0x74 CMakeFiles/nrf24_sniffer.dir/nrf24_sniffer.c.obj
 .text.parse_hex_bytes.constprop.0
                0x0000000000001a9c       0x36 CMakeFiles/nrf24_sniffer.dir/nrf24_sniffer.c.obj
 .text.parse_hex_addr.constprop.0
                0x0000000000001ad2       0x32 CMakeFiles/nrf24_sniffer.dir/nrf24_sniffer.c.obj
 .text.rx_one_packet.constprop.0
                0x0000000000001b04       0xb0 CMakeFiles/nrf24_sniffer.dir/nrf24_sniffer.c.obj
 .text.esb_parse.part.0.constprop.0
                0x0000000000001bb4      0x114 CMakeFiles/nrf24_sniffer.dir/nrf24_sniffer.c.obj
 .text.rf_set_channel.isra.0
                0x0000000000001cc8       0x30 CMakeFiles/nrf24_sniffer.dir/nrf24_sniffer.c.obj
 .text.handle_command
                0x0000000000001cf8      0x3bc CMakeFiles/nrf24_sniffer.dir/nrf24_sniffer.c.obj
 .text.process_and_report
                0x00000000000020b4      0x1f0 CMakeFiles/nrf24_sniffer.dir/nrf24_sniffer.c.obj
 .text.startup.main
                0x00000000000022a4      0x254 CMakeFiles/nrf24_sniffer.dir/nrf24_sniffer.c.obj
                0x00000000000022a4                main
 .text.NmiSRHandler
                0x00000000000024f8        0x2 CMakeFiles/nrf24_sniffer.dir/home/runner/work/CatSneeze_toolkit/CatSneeze_toolkit/_ti_sdk/simplelink_cc13xx_cc26xx_sdk_8_32_00_07/source/ti/devices/cc13x2x7_cc26x2x7/startup_files/startup_gcc.c.obj
                0x00000000000024f8                NmiSR
 .text.FaultISRHandler
                0x00000000000024fa        0x2 CMakeFiles/nrf24_sniffer.dir/home/runner/work/CatSneeze_toolkit/CatSneeze_toolkit/_ti_sdk/simplelink_cc13xx_cc26xx_sdk_8_32_00_07/source/ti/devices/cc13x2x7_cc26x2x7/startup_files/startup_gcc.c.obj
                0x00000000000024fa                FaultISR
 .text.IntDefaultHandler
                0x00000000000024fc        0x2 CMakeFiles/nrf24_sniffer.dir/home/runner/work/CatSneeze_toolkit/CatSneeze_toolkit/_ti_sdk/simplelink_cc13xx_cc26xx_sdk_8_32_00_07/source/ti/devices/cc13x2x7_cc26x2x7/startup_files/startup_gcc.c.obj
                0x00000000000024fc                TRNGIntHandler
                0x00000000000024fc                SSI0IntHandler
                0x00000000000024fc                SWEvent0IntHandler
                0x00000000000024fc                uDMAIntHandler
                0x00000000000024fc                WatchdogIntHandler
                0x00000000000024fc                RFCHardwareIntHandler
                0x00000000000024fc                Timer1BIntHandler
                0x00000000000024fc                I2SIntHandler
                0x00000000000024fc                Timer2BIntHandler
                0x00000000000024fc                Timer2AIntHandler
                0x00000000000024fc                AUXTimer2IntHandler
                0x00000000000024fc                Timer1AIntHandler
                0x00000000000024fc                UART0IntHandler
                0x00000000000024fc                GPIOIntHandler
                0x00000000000024fc                BatMonIntHandler
                0x00000000000024fc                AUXSWEvent0IntHandler
                0x00000000000024fc                AUXADCIntHandler
                0x00000000000024fc                PendSVIntHandler
                0x00000000000024fc                RFCCPE1IntHandler
                0x00000000000024fc                AUXSWEvent1IntHandler
                0x00000000000024fc                SVCallIntHandler
                0x00000000000024fc                MPUFaultIntHandler
                0x00000000000024fc                SysTickIntHandler
                0x00000000000024fc                BusFaultIntHandler
                0x00000000000024fc                OSCIntHandler
                0x00000000000024fc                AONProgIntHandler
                0x00000000000024fc                AUXCompAIntHandler
                0x00000000000024fc                SSI1IntHandler
                0x00000000000024fc                FlashIntHandler
                0x00000000000024fc                uDMAErrIntHandler
                0x00000000000024fc                UsageFaultIntHandler
                0x00000000000024fc                RFCCmdAckIntHandler
                0x00000000000024fc                PKAIntHandler
                0x00000000000024fc                RFCCPE0IntHandler
                0x00000000000024fc                UART1IntHandler
                0x00000000000024fc                CryptoIntHandler
                0x00000000000024fc                Timer0AIntHandler
                0x00000000000024fc                I2CIntHandler
                0x00000000000024fc                DebugMonIntHandler
                0x00000000000024fc                Timer0BIntHandler
                0x00000000000024fc                AUXCombEventIntHandler
                0x00000000000024fc                Timer3AIntHandler
                0x00000000000024fc                DynProgIntHandler
                0x00000000000024fc                Timer3BIntHandler
                0x00000000000024fc                AONRTCIntHandler
 *fill*         0x00000000000024fe        0x2 
 .text.ResetISR
                0x0000000000002500       0x60 CMakeFiles/nrf24_sniffer.dir/home/runner/work/CatSneeze_toolkit/CatSneeze_toolkit/_ti_sdk/simplelink_cc13xx_cc26xx_sdk_8_32_00_07/source/ti/devices/cc13x2x7_cc26x2x7/startup_files/startup_gcc.c.obj
                0x0000000000002500                ResetISR
 .text.Board_init
                0x0000000000002560       0x14 CMakeFiles/nrf24_sniffer.dir/syscfg_pregenerated/ti_drivers_config.c.obj
                0x0000000000002560                Board_init
 .text.RF_cmdGet
                0x0000000000002574       0x40 /home/runner/work/CatSneeze_toolkit/CatSneeze_toolkit/_ti_sdk/simplelink_cc13xx_cc26xx_sdk_8_32_00_07/source/ti/drivers/rf/lib/gcc/m4f/rf_multiMode_cc13x2.a(RFCC26X2_multiMode.c.cc13x2.gcc.o)
 .text.RF_dbellSyncOnAck
                0x00000000000025b4       0x14 /home/runner/work/CatSneeze_toolkit/CatSneeze_toolkit/_ti_sdk/simplelink_cc13xx_cc26xx_sdk_8_32_00_07/source/ti/drivers/rf/lib/gcc/m4f/rf_multiMode_cc13x2.a(RFCC26X2_multiMode.c.cc13x2.gcc.o)
 .text.RF_verifyGap
                0x00000000000025c8       0xa8 /home/runner/work/CatSneeze_toolkit/CatSneeze_toolkit/_ti_sdk/simplelink_cc13xx_cc26xx_sdk_8_32_00_07/source/ti/drivers/rf/lib/gcc/m4f/rf_multiMode_cc13x2.a(RFCC26X2_multiMode.c.cc13x2.gcc.o)
 .text.RF_defaultExecutionPolicy
                0x0000000000002670        0x4 /home/runner/work/CatSneeze_toolkit/CatSneeze_toolkit/_ti_sdk/simplelink_cc13xx_cc26xx_sdk_8_32_00_07/source/ti/drivers/rf/lib/gcc/m4f/rf_multiMode_cc13x2.a(RFCC26X2_multiMode.c.cc13x2.gcc.o)
                0x0000000000002670                RF_defaultExecutionPolicy
 .text.RF_checkCmdFsError
                0x0000000000002674       0x30 /home/runner/work/CatSneeze_toolkit/CatSneeze_toolkit/_ti_sdk/simplelink_cc13xx_cc26xx_sdk_8_32_00_07/source/ti/drivers/rf/lib/gcc/m4f/rf_multiMode_cc13x2.a(RFCC26X2_multiMode.c.cc13x2.gcc.o)
 .text.RF_invokeGlobalCallback
                0x00000000000026a4       0x20 /home/runner/work/CatSneeze_toolkit/CatSneeze_toolkit/_ti_sdk/simplelink_cc13xx_cc26xx_sdk_8_32_00_07/source/ti/drivers/rf/lib/gcc/m4f/rf_multiMode_cc13x2.a(RFCC26X2_multiMode.c.cc13x2.gcc.o)
 .text.RF_defaultCallback
                0x00000000000026c4        0x2 /home/runner/work/CatSneeze_toolkit/CatSneeze_toolkit/_ti_sdk/simplelink_cc13xx_cc26xx_sdk_8_32_00_07/source/ti/drivers/rf/lib/gcc/m4f/rf_multiMode_cc13x2.a(RFCC26X2_multiMode.c.cc13x2.gcc.o)
 *fill*         0x00000000000026c6        0x2 
 .text.RF_isStateTransitionAllowed
                0x00000000000026c8       0x24 /home/runner/work/CatSneeze_toolkit/CatSneeze_toolkit/_ti_sdk/simplelink_cc13xx_cc26xx_sdk_8_32_00_07/source/ti/drivers/rf/lib/gcc/m4f/rf_multiMode_cc13x2.a(RFCC26X2_multiMode.c.cc13x2.gcc.o)
 .text.RF_updatePowerupDuration
                0x00000000000026ec       0x44 /home/runner/work/CatSneeze_toolkit/CatSneeze_toolkit/_ti_sdk/simplelink_cc13xx_cc26xx_sdk_8_32_00_07/source/ti/drivers/rf/lib/gcc/m4f/rf_multiMode_cc13x2.a(RFCC26X2_multiMode.c.cc13x2.gcc.o)
 .text.RF_attachOverrides
                0x0000000000002730       0x66 /home/runner/work/CatSneeze_toolkit/CatSneeze_toolkit/_ti_sdk/simplelink_cc13xx_cc26xx_sdk_8_32_00_07/source/ti/drivers/rf/lib/gcc/m4f/rf_multiMode_cc13x2.a(RFCC26X2_multiMode.c.cc13x2.gcc.o)
 .text.RF_detachOverrides
                0x0000000000002796       0x6a /home/runner/work/CatSneeze_toolkit/CatSneeze_toolkit/_ti_sdk/simplelink_cc13xx_cc26xx_sdk_8_32_00_07/source/ti/drivers/rf/lib/gcc/m4f/rf_multiMode_cc13x2.a(RFCC26X2_multiMode.c.cc13x2.gcc.o)
 .text.RF_cmdStoreEvents
                0x0000000000002800       0x2e /home/runner/work/CatSneeze_toolkit/CatSneeze_toolkit/_ti_sdk/simplelink_cc13xx_cc26xx_sdk_8_32_00_07/source/ti/drivers/rf/lib/gcc/m4f/rf_multiMode_cc13x2.a(RFCC26X2_multiMode.c.cc13x2.gcc.o)
 .text.RF_searchAndReplacePAOverride
                0x000000000000282e       0x32 /home/runner/work/CatSneeze_toolkit/CatSneeze_toolkit/_ti_sdk/simplelink_cc13xx_cc26xx_sdk_8_32_00_07/source/ti/drivers/rf/lib/gcc/m4f/rf_multiMode_cc13x2.a(RFCC26X2_multiMode.c.cc13x2.gcc.o)
 .text.RF_issueRadioFreeCb
                0x0000000000002860       0x78 /home/runner/work/CatSneeze_toolkit/CatSneeze_toolkit/_ti_sdk/simplelink_cc13xx_cc26xx_sdk_8_32_00_07/source/ti/drivers/rf/lib/gcc/m4f/rf_multiMode_cc13x2.a(RFCC26X2_multiMode.c.cc13x2.gcc.o)
 .text.RF_clkReqAccess
                0x00000000000028d8        0x6 /home/runner/work/CatSneeze_toolkit/CatSneeze_toolkit/_ti_sdk/simplelink_cc13xx_cc26xx_sdk_8_32_00_07/source/ti/drivers/rf/lib/gcc/m4f/rf_multiMode_cc13x2.a(RFCC26X2_multiMode.c.cc13x2.gcc.o)
 .text.RF_restartClockTimeout
                0x00000000000028de       0x18 /home/runner/work/CatSneeze_toolkit/CatSneeze_toolkit/_ti_sdk/simplelink_cc13xx_cc26xx_sdk_8_32_00_07/source/ti/drivers/rf/lib/gcc/m4f/rf_multiMode_cc13x2.a(RFCC26X2_multiMode.c.cc13x2.gcc.o)
 .text.RF_syncCb
                0x00000000000028f6       0x62 /home/runner/work/CatSneeze_toolkit/CatSneeze_toolkit/_ti_sdk/simplelink_cc13xx_cc26xx_sdk_8_32_00_07/source/ti/drivers/rf/lib/gcc/m4f/rf_multiMode_cc13x2.a(RFCC26X2_multiMode.c.cc13x2.gcc.o)
 .text.RF_applyRfCorePatch
                0x0000000000002958       0x74 /home/runner/work/CatSneeze_toolkit/CatSneeze_toolkit/_ti_sdk/simplelink_cc13xx_cc26xx_sdk_8_32_00_07/source/ti/drivers/rf/lib/gcc/m4f/rf_multiMode_cc13x2.a(RFCC26X2_multiMode.c.cc13x2.gcc.o)
 .text.RF_hwiHw
                0x00000000000029cc       0x6c /home/runner/work/CatSneeze_toolkit/CatSneeze_toolkit/_ti_sdk/simplelink_cc13xx_cc26xx_sdk_8_32_00_07/source/ti/drivers/rf/lib/gcc/m4f/rf_multiMode_cc13x2.a(RFCC26X2_multiMode.c.cc13x2.gcc.o)
 .text.RF_swiFsm
                0x0000000000002a38       0x24 /home/runner/work/CatSneeze_toolkit/CatSneeze_toolkit/_ti_sdk/simplelink_cc13xx_cc26xx_sdk_8_32_00_07/source/ti/drivers/rf/lib/gcc/m4f/rf_multiMode_cc13x2.a(RFCC26X2_multiMode.c.cc13x2.gcc.o)
 .text.RF_fsmXOSCState
                0x0000000000002a5c       0x50 /home/runner/work/CatSneeze_toolkit/CatSneeze_toolkit/_ti_sdk/simplelink_cc13xx_cc26xx_sdk_8_32_00_07/source/ti/drivers/rf/lib/gcc/m4f/rf_multiMode_cc13x2.a(RFCC26X2_multiMode.c.cc13x2.gcc.o)
 .text.RF_hwiCpe0ChangePhy
                0x0000000000002aac       0x24 /home/runner/work/CatSneeze_toolkit/CatSneeze_toolkit/_ti_sdk/simplelink_cc13xx_cc26xx_sdk_8_32_00_07/source/ti/drivers/rf/lib/gcc/m4f/rf_multiMode_cc13x2.a(RFCC26X2_multiMode.c.cc13x2.gcc.o)
 .text.RF_executeDirectImmediateCmd
                0x0000000000002ad0       0x2c /home/runner/work/CatSneeze_toolkit/CatSneeze_toolkit/_ti_sdk/simplelink_cc13xx_cc26xx_sdk_8_32_00_07/source/ti/drivers/rf/lib/gcc/m4f/rf_multiMode_cc13x2.a(RFCC26X2_multiMode.c.cc13x2.gcc.o)
 .text.RF_wakeupNotification
                0x0000000000002afc       0x50 /home/runner/work/CatSneeze_toolkit/CatSneeze_toolkit/_ti_sdk/simplelink_cc13xx_cc26xx_sdk_8_32_00_07/source/ti/drivers/rf/lib/gcc/m4f/rf_multiMode_cc13x2.a(RFCC26X2_multiMode.c.cc13x2.gcc.o)
 .text.RF_decodeOverridePointers.constprop.0
                0x0000000000002b4c      0x120 /home/runner/work/CatSneeze_toolkit/CatSneeze_toolkit/_ti_sdk/simplelink_cc13xx_cc26xx_sdk_8_32_00_07/source/ti/drivers/rf/lib/gcc/m4f/rf_multiMode_cc13x2.a(RFCC26X2_multiMode.c.cc13x2.gcc.o)
 .text.RF_initRadioSetup
                0x0000000000002c6c       0xb0 /home/runner/work/CatSneeze_toolkit/CatSneeze_toolkit/_ti_sdk/simplelink_cc13xx_cc26xx_sdk_8_32_00_07/source/ti/drivers/rf/lib/gcc/m4f/rf_multiMode_cc13x2.a(RFCC26X2_multiMode.c.cc13x2.gcc.o)
 .text.RF_fsmSetupState
                0x0000000000002d1c      0x10c /home/runner/work/CatSneeze_toolkit/CatSneeze_toolkit/_ti_sdk/simplelink_cc13xx_cc26xx_sdk_8_32_00_07/source/ti/drivers/rf/lib/gcc/m4f/rf_multiMode_cc13x2.a(RFCC26X2_multiMode.c.cc13x2.gcc.o)
 .text.RF_updatePaConfiguration
                0x0000000000002e28       0xb8 /home/runner/work/CatSneeze_toolkit/CatSneeze_toolkit/_ti_sdk/simplelink_cc13xx_cc26xx_sdk_8_32_00_07/source/ti/drivers/rf/lib/gcc/m4f/rf_multiMode_cc13x2.a(RFCC26X2_multiMode.c.cc13x2.gcc.o)
 .text.RF_defaultSubmitPolicy
                0x0000000000002ee0       0x94 /home/runner/work/CatSneeze_toolkit/CatSneeze_toolkit/_ti_sdk/simplelink_cc13xx_cc26xx_sdk_8_32_00_07/source/ti/drivers/rf/lib/gcc/m4f/rf_multiMode_cc13x2.a(RFCC26X2_multiMode.c.cc13x2.gcc.o)
                0x0000000000002ee0                RF_defaultSubmitPolicy
 .text.RF_discardPendCmd
                0x0000000000002f74       0x8c /home/runner/work/CatSneeze_toolkit/CatSneeze_toolkit/_ti_sdk/simplelink_cc13xx_cc26xx_sdk_8_32_00_07/source/ti/drivers/rf/lib/gcc/m4f/rf_multiMode_cc13x2.a(RFCC26X2_multiMode.c.cc13x2.gcc.o)
 .text.RF_abortCmd
                0x0000000000003000      0x160 /home/runner/work/CatSneeze_toolkit/CatSneeze_toolkit/_ti_sdk/simplelink_cc13xx_cc26xx_sdk_8_32_00_07/source/ti/drivers/rf/lib/gcc/m4f/rf_multiMode_cc13x2.a(RFCC26X2_multiMode.c.cc13x2.gcc.o)
 .text.RF_powerConstraintSet
                0x0000000000003160       0x1c /home/runner/work/CatSneeze_toolkit/CatSneeze_toolkit/_ti_sdk/simplelink_cc13xx_cc26xx_sdk_8_32_00_07/source/ti/drivers/rf/lib/gcc/m4f/rf_multiMode_cc13x2.a(RFCC26X2_multiMode.c.cc13x2.gcc.o)
                0x0000000000003160                RF_powerConstraintSet
 .text.RF_ratRestartChannels
                0x000000000000317c       0x88 /home/runner/work/CatSneeze_toolkit/CatSneeze_toolkit/_ti_sdk/simplelink_cc13xx_cc26xx_sdk_8_32_00_07/source/ti/drivers/rf/lib/gcc/m4f/rf_multiMode_cc13x2.a(RFCC26X2_multiMode.c.cc13x2.gcc.o)
 .text.RF_powerConstraintRelease
                0x0000000000003204       0x34 /home/runner/work/CatSneeze_toolkit/CatSneeze_toolkit/_ti_sdk/simplelink_cc13xx_cc26xx_sdk_8_32_00_07/source/ti/drivers/rf/lib/gcc/m4f/rf_multiMode_cc13x2.a(RFCC26X2_multiMode.c.cc13x2.gcc.o)
                0x0000000000003204                RF_powerConstraintRelease
 .text.RF_clkInactivityCallback
                0x0000000000003238       0x1c /home/runner/work/CatSneeze_toolkit/CatSneeze_toolkit/_ti_sdk/simplelink_cc13xx_cc26xx_sdk_8_32_00_07/source/ti/drivers/rf/lib/gcc/m4f/rf_multiMode_cc13x2.a(RFCC26X2_multiMode.c.cc13x2.gcc.o)
 .text.RF_radioOpDoneCb
                0x0000000000003254      0x140 /home/runner/work/CatSneeze_toolkit/CatSneeze_toolkit/_ti_sdk/simplelink_cc13xx_cc26xx_sdk_8_32_00_07/source/ti/drivers/rf/lib/gcc/m4f/rf_multiMode_cc13x2.a(RFCC26X2_multiMode.c.cc13x2.gcc.o)
 .text.RF_ratFreeChannel
                0x0000000000003394       0x88 /home/runner/work/CatSneeze_toolkit/CatSneeze_toolkit/_ti_sdk/simplelink_cc13xx_cc26xx_sdk_8_32_00_07/source/ti/drivers/rf/lib/gcc/m4f/rf_multiMode_cc13x2.a(RFCC26X2_multiMode.c.cc13x2.gcc.o)
 .text.RF_swiHw
                0x000000000000341c       0xcc /home/runner/work/CatSneeze_toolkit/CatSneeze_toolkit/_ti_sdk/simplelink_cc13xx_cc26xx_sdk_8_32_00_07/source/ti/drivers/rf/lib/gcc/m4f/rf_multiMode_cc13x2.a(RFCC26X2_multiMode.c.cc13x2.gcc.o)
 .text.RF_getCurrentTime
                0x00000000000034e8       0x60 /home/runner/work/CatSneeze_toolkit/CatSneeze_toolkit/_ti_sdk/simplelink_cc13xx_cc26xx_sdk_8_32_00_07/source/ti/drivers/rf/lib/gcc/m4f/rf_multiMode_cc13x2.a(RFCC26X2_multiMode.c.cc13x2.gcc.o)
                0x00000000000034e8                RF_getCurrentTime
 .text.RF_cmdDispatchTime
                0x0000000000003548       0xac /home/runner/work/CatSneeze_toolkit/CatSneeze_toolkit/_ti_sdk/simplelink_cc13xx_cc26xx_sdk_8_32_00_07/source/ti/drivers/rf/lib/gcc/m4f/rf_multiMode_cc13x2.a(RFCC26X2_multiMode.c.cc13x2.gcc.o)
 .text.RF_dispatchNextCmd
                0x00000000000035f4      0x1c4 /home/runner/work/CatSneeze_toolkit/CatSneeze_toolkit/_ti_sdk/simplelink_cc13xx_cc26xx_sdk_8_32_00_07/source/ti/drivers/rf/lib/gcc/m4f/rf_multiMode_cc13x2.a(RFCC26X2_multiMode.c.cc13x2.gcc.o)
 .text.RF_hwiCpe0Active
                0x00000000000037b8       0xf8 /home/runner/work/CatSneeze_toolkit/CatSneeze_toolkit/_ti_sdk/simplelink_cc13xx_cc26xx_sdk_8_32_00_07/source/ti/drivers/rf/lib/gcc/m4f/rf_multiMode_cc13x2.a(RFCC26X2_multiMode.c.cc13x2.gcc.o)
 .text.RF_hwiCpe0PowerFsm
                0x00000000000038b0       0x60 /home/runner/work/CatSneeze_toolkit/CatSneeze_toolkit/_ti_sdk/simplelink_cc13xx_cc26xx_sdk_8_32_00_07/source/ti/drivers/rf/lib/gcc/m4f/rf_multiMode_cc13x2.a(RFCC26X2_multiMode.c.cc13x2.gcc.o)
 .text.RF_calculateDispatchTime
                0x0000000000003910       0xc8 /home/runner/work/CatSneeze_toolkit/CatSneeze_toolkit/_ti_sdk/simplelink_cc13xx_cc26xx_sdk_8_32_00_07/source/ti/drivers/rf/lib/gcc/m4f/rf_multiMode_cc13x2.a(RFCC26X2_multiMode.c.cc13x2.gcc.o)
 .text.RF_dispatchNextEvent
                0x00000000000039d8       0x6c /home/runner/work/CatSneeze_toolkit/CatSneeze_toolkit/_ti_sdk/simplelink_cc13xx_cc26xx_sdk_8_32_00_07/source/ti/drivers/rf/lib/gcc/m4f/rf_multiMode_cc13x2.a(RFCC26X2_multiMode.c.cc13x2.gcc.o)
 .text.RF_fsmPowerUpState
                0x0000000000003a44      0x118 /home/runner/work/CatSneeze_toolkit/CatSneeze_toolkit/_ti_sdk/simplelink_cc13xx_cc26xx_sdk_8_32_00_07/source/ti/drivers/rf/lib/gcc/m4f/rf_multiMode_cc13x2.a(RFCC26X2_multiMode.c.cc13x2.gcc.o)
 .text.RF_fsmActiveState
                0x0000000000003b5c      0x4dc /home/runner/work/CatSneeze_toolkit/CatSneeze_toolkit/_ti_sdk/simplelink_cc13xx_cc26xx_sdk_8_32_00_07/source/ti/drivers/rf/lib/gcc/m4f/rf_multiMode_cc13x2.a(RFCC26X2_multiMode.c.cc13x2.gcc.o)
 .text.RF_clkPowerUp
                0x0000000000004038       0x24 /home/runner/work/CatSneeze_toolkit/CatSneeze_toolkit/_ti_sdk/simplelink_cc13xx_cc26xx_sdk_8_32_00_07/source/ti/drivers/rf/lib/gcc/m4f/rf_multiMode_cc13x2.a(RFCC26X2_multiMode.c.cc13x2.gcc.o)
 .text.RF_postCmd
                0x000000000000405c      0x100 /home/runner/work/CatSneeze_toolkit/CatSneeze_toolkit/_ti_sdk/simplelink_cc13xx_cc26xx_sdk_8_32_00_07/source/ti/drivers/rf/lib/gcc/m4f/rf_multiMode_cc13x2.a(RFCC26X2_multiMode.c.cc13x2.gcc.o)
                0x000000000000405c                RF_postCmd
 .text.RF_pendCmd
                0x000000000000415c       0xa8 /home/runner/work/CatSneeze_toolkit/CatSneeze_toolkit/_ti_sdk/simplelink_cc13xx_cc26xx_sdk_8_32_00_07/source/ti/drivers/rf/lib/gcc/m4f/rf_multiMode_cc13x2.a(RFCC26X2_multiMode.c.cc13x2.gcc.o)
                0x000000000000415c                RF_pendCmd
 .text.RF_runCmd
                0x0000000000004204       0x24 /home/runner/work/CatSneeze_toolkit/CatSneeze_toolkit/_ti_sdk/simplelink_cc13xx_cc26xx_sdk_8_32_00_07/source/ti/drivers/rf/lib/gcc/m4f/rf_multiMode_cc13x2.a(RFCC26X2_multiMode.c.cc13x2.gcc.o)
                0x0000000000004204                RF_runCmd
 .text.RF_Params_init
                0x0000000000004228       0x18 /home/runner/work/CatSneeze_toolkit/CatSneeze_toolkit/_ti_sdk/simplelink_cc13xx_cc26xx_sdk_8_32_00_07/source/ti/drivers/rf/lib/gcc/m4f/rf_multiMode_cc13x2.a(RFCC26X2_multiMode.c.cc13x2.gcc.o)
                0x0000000000004228                RF_Params_init
 .text.RF_open  0x0000000000004240      0x2cc /home/runner/work/CatSneeze_toolkit/CatSneeze_toolkit/_ti_sdk/simplelink_cc13xx_cc26xx_sdk_8_32_00_07/source/ti/drivers/rf/lib/gcc/m4f/rf_multiMode_cc13x2.a(RFCC26X2_multiMode.c.cc13x2.gcc.o)
                0x0000000000004240                RF_open
 .text.NOROM_RFCCpeIntGetAndClear
                0x000000000000450c       0x10 /home/runner/work/CatSneeze_toolkit/CatSneeze_toolkit/_ti_sdk/simplelink_cc13xx_cc26xx_sdk_8_32_00_07/source/ti/drivers/rf/lib/gcc/m4f/rf_multiMode_cc13x2.a(rfc.c.cc13x2.gcc.o)
                0x000000000000450c                NOROM_RFCCpeIntGetAndClear
 .text.NOROM_RFCDoorbellSendTo
                0x000000000000451c       0x20 /home/runner/work/CatSneeze_toolkit/CatSneeze_toolkit/_ti_sdk/simplelink_cc13xx_cc26xx_sdk_8_32_00_07/source/ti/drivers/rf/lib/gcc/m4f/rf_multiMode_cc13x2.a(rfc.c.cc13x2.gcc.o)
                0x000000000000451c                NOROM_RFCDoorbellSendTo
 .text.NOROM_RFCSynthPowerDown
                0x000000000000453c       0x4c /home/runner/work/CatSneeze_toolkit/CatSneeze_toolkit/_ti_sdk/simplelink_cc13xx_cc26xx_sdk_8_32_00_07/source/ti/drivers/rf/lib/gcc/m4f/rf_multiMode_cc13x2.a(rfc.c.cc13x2.gcc.o)
                0x000000000000453c                NOROM_RFCSynthPowerDown
 .text.NOROM_RFCCpePatchReset
                0x0000000000004588        0x2 /home/runner/work/CatSneeze_toolkit/CatSneeze_toolkit/_ti_sdk/simplelink_cc13xx_cc26xx_sdk_8_32_00_07/source/ti/drivers/rf/lib/gcc/m4f/rf_multiMode_cc13x2.a(rfc.c.cc13x2.gcc.o)
                0x0000000000004588                NOROM_RFCCpePatchReset
 .text.NOROM_RFCOverrideSearch
                0x000000000000458a       0x26 /home/runner/work/CatSneeze_toolkit/CatSneeze_toolkit/_ti_sdk/simplelink_cc13xx_cc26xx_sdk_8_32_00_07/source/ti/drivers/rf/lib/gcc/m4f/rf_multiMode_cc13x2.a(rfc.c.cc13x2.gcc.o)
                0x000000000000458a                NOROM_RFCOverrideSearch
 .text.NOROM_RFCAnaDivTxOverride
                0x00000000000045b0       0x3c /home/runner/work/CatSneeze_toolkit/CatSneeze_toolkit/_ti_sdk/simplelink_cc13xx_cc26xx_sdk_8_32_00_07/source/ti/drivers/rf/lib/gcc/m4f/rf_multiMode_cc13x2.a(rfc.c.cc13x2.gcc.o)
                0x00000000000045b0                NOROM_RFCAnaDivTxOverride
 .text.NOROM_RFCOverrideUpdate
                0x00000000000045ec        0x4 /home/runner/work/CatSneeze_toolkit/CatSneeze_toolkit/_ti_sdk/simplelink_cc13xx_cc26xx_sdk_8_32_00_07/source/ti/drivers/rf/lib/gcc/m4f/rf_multiMode_cc13x2.a(rfc.c.cc13x2.gcc.o)
                0x00000000000045ec                NOROM_RFCOverrideUpdate
 .text.NOROM_RFCHwIntGetAndClear
                0x00000000000045f0       0x10 /home/runner/work/CatSneeze_toolkit/CatSneeze_toolkit/_ti_sdk/simplelink_cc13xx_cc26xx_sdk_8_32_00_07/source/ti/drivers/rf/lib/gcc/m4f/rf_multiMode_cc13x2.a(rfc.c.cc13x2.gcc.o)
                0x00000000000045f0                NOROM_RFCHwIntGetAndClear
 .text.configurePropPatch
                0x0000000000004600       0x48 /home/runner/work/CatSneeze_toolkit/CatSneeze_toolkit/_ti_sdk/simplelink_cc13xx_cc26xx_sdk_8_32_00_07/source/ti/drivers/rf/lib/gcc/m4f/rf_multiMode_cc13x2.a(rf_patch_cpe_prop.c.cc13x2.gcc.o)
 .text.rf_patch_cpe_prop
                0x0000000000004648       0x2c /home/runner/work/CatSneeze_toolkit/CatSneeze_toolkit/_ti_sdk/simplelink_cc13xx_cc26xx_sdk_8_32_00_07/source/ti/drivers/rf/lib/gcc/m4f/rf_multiMode_cc13x2.a(rf_patch_cpe_prop.c.cc13x2.gcc.o)
                0x0000000000004648                rf_patch_cpe_prop
 .text.List_clearList
                0x0000000000004674       0x18 /home/runner/work/CatSneeze_toolkit/CatSneeze_toolkit/_ti_sdk/simplelink_cc13xx_cc26xx_sdk_8_32_00_07/source/ti/drivers/lib/gcc/m4f/drivers_cc13x2x7.a(List.c.obj)
                0x0000000000004674                List_clearList
 .text.List_get
                0x000000000000468c       0x28 /home/runner/work/CatSneeze_toolkit/CatSneeze_toolkit/_ti_sdk/simplelink_cc13xx_cc26xx_sdk_8_32_00_07/source/ti/drivers/lib/gcc/m4f/drivers_cc13x2x7.a(List.c.obj)
                0x000000000000468c                List_get
 .text.List_insert
                0x00000000000046b4       0x2c /home/runner/work/CatSneeze_toolkit/CatSneeze_toolkit/_ti_sdk/simplelink_cc13xx_cc26xx_sdk_8_32_00_07/source/ti/drivers/lib/gcc/m4f/drivers_cc13x2x7.a(List.c.obj)
                0x00000000000046b4                List_insert
 .text.List_put
                0x00000000000046e0       0x2c /home/runner/work/CatSneeze_toolkit/CatSneeze_toolkit/_ti_sdk/simplelink_cc13xx_cc26xx_sdk_8_32_00_07/source/ti/drivers/lib/gcc/m4f/drivers_cc13x2x7.a(List.c.obj)
                0x00000000000046e0                List_put
 .text.List_putHead
                0x000000000000470c       0x2c /home/runner/work/CatSneeze_toolkit/CatSneeze_toolkit/_ti_sdk/simplelink_cc13xx_cc26xx_sdk_8_32_00_07/source/ti/drivers/lib/gcc/m4f/drivers_cc13x2x7.a(List.c.obj)
                0x000000000000470c                List_putHead
 .text.List_remove
                0x0000000000004738       0x30 /home/runner/work/CatSneeze_toolkit/CatSneeze_toolkit/_ti_sdk/simplelink_cc13xx_cc26xx_sdk_8_32_00_07/source/ti/drivers/lib/gcc/m4f/drivers_cc13x2x7.a(List.c.obj)
                0x0000000000004738                List_remove
 .text.emptyClockFunc
                0x0000000000004768        0x4 /home/runner/work/CatSneeze_toolkit/CatSneeze_toolkit/_ti_sdk/simplelink_cc13xx_cc26xx_sdk_8_32_00_07/source/ti/drivers/lib/gcc/m4f/drivers_cc13x2x7.a(PowerCC26X2.c.obj)
 .text.nopResourceHandler
                0x000000000000476c        0x4 /home/runner/work/CatSneeze_toolkit/CatSneeze_toolkit/_ti_sdk/simplelink_cc13xx_cc26xx_sdk_8_32_00_07/source/ti/drivers/lib/gcc/m4f/drivers_cc13x2x7.a(PowerCC26X2.c.obj)
 .text.configureRFCoreClocks
                0x0000000000004770        0x4 /home/runner/work/CatSneeze_toolkit/CatSneeze_toolkit/_ti_sdk/simplelink_cc13xx_cc26xx_sdk_8_32_00_07/source/ti/drivers/lib/gcc/m4f/drivers_cc13x2x7.a(PowerCC26X2.c.obj)
 .text.configureXOSCHF
                0x0000000000004774      0x13c /home/runner/work/CatSneeze_toolkit/CatSneeze_toolkit/_ti_sdk/simplelink_cc13xx_cc26xx_sdk_8_32_00_07/source/ti/drivers/lib/gcc/m4f/drivers_cc13x2x7.a(PowerCC26X2.c.obj)
 .text.switchXOSCHF
                0x00000000000048b0       0x7c /home/runner/work/CatSneeze_toolkit/CatSneeze_toolkit/_ti_sdk/simplelink_cc13xx_cc26xx_sdk_8_32_00_07/source/ti/drivers/lib/gcc/m4f/drivers_cc13x2x7.a(PowerCC26X2.c.obj)
 .text.switchToTCXO
                0x000000000000492c       0x10 /home/runner/work/CatSneeze_toolkit/CatSneeze_toolkit/_ti_sdk/simplelink_cc13xx_cc26xx_sdk_8_32_00_07/source/ti/drivers/lib/gcc/m4f/drivers_cc13x2x7.a(PowerCC26X2.c.obj)
 .text.oscillatorISR
                0x000000000000493c       0xc0 /home/runner/work/CatSneeze_toolkit/CatSneeze_toolkit/_ti_sdk/simplelink_cc13xx_cc26xx_sdk_8_32_00_07/source/ti/drivers/lib/gcc/m4f/drivers_cc13x2x7.a(PowerCC26X2.c.obj)
 .text.Power_disablePolicy
                0x00000000000049fc       0x14 /home/runner/work/CatSneeze_toolkit/CatSneeze_toolkit/_ti_sdk/simplelink_cc13xx_cc26xx_sdk_8_32_00_07/source/ti/drivers/lib/gcc/m4f/drivers_cc13x2x7.a(PowerCC26X2.c.obj)
                0x00000000000049fc                Power_disablePolicy
 .text.Power_enablePolicy
                0x0000000000004a10       0x10 /home/runner/work/CatSneeze_toolkit/CatSneeze_toolkit/_ti_sdk/simplelink_cc13xx_cc26xx_sdk_8_32_00_07/source/ti/drivers/lib/gcc/m4f/drivers_cc13x2x7.a(PowerCC26X2.c.obj)
                0x0000000000004a10                Power_enablePolicy
 .text.Power_getConstraintMask
                0x0000000000004a20        0xc /home/runner/work/CatSneeze_toolkit/CatSneeze_toolkit/_ti_sdk/simplelink_cc13xx_cc26xx_sdk_8_32_00_07/source/ti/drivers/lib/gcc/m4f/drivers_cc13x2x7.a(PowerCC26X2.c.obj)
                0x0000000000004a20                Power_getConstraintMask
 .text.Power_getTransitionLatency
                0x0000000000004a2c       0x20 /home/runner/work/CatSneeze_toolkit/CatSneeze_toolkit/_ti_sdk/simplelink_cc13xx_cc26xx_sdk_8_32_00_07/source/ti/drivers/lib/gcc/m4f/drivers_cc13x2x7.a(PowerCC26X2.c.obj)
                0x0000000000004a2c                Power_getTransitionLatency
 .text.Power_idleFunc
                0x0000000000004a4c       0x18 /home/runner/work/CatSneeze_toolkit/CatSneeze_toolkit/_ti_sdk/simplelink_cc13xx_cc26xx_sdk_8_32_00_07/source/ti/drivers/lib/gcc/m4f/drivers_cc13x2x7.a(PowerCC26X2.c.obj)
                0x0000000000004a4c                Power_idleFunc
 .text.Power_init
                0x0000000000004a64      0x16c /home/runner/work/CatSneeze_toolkit/CatSneeze_toolkit/_ti_sdk/simplelink_cc13xx_cc26xx_sdk_8_32_00_07/source/ti/drivers/lib/gcc/m4f/drivers_cc13x2x7.a(PowerCC26X2.c.obj)
                0x0000000000004a64                Power_init
 .text.Power_registerNotify
                0x0000000000004bd0       0x24 /home/runner/work/CatSneeze_toolkit/CatSneeze_toolkit/_ti_sdk/simplelink_cc13xx_cc26xx_sdk_8_32_00_07/source/ti/drivers/lib/gcc/m4f/drivers_cc13x2x7.a(PowerCC26X2.c.obj)
                0x0000000000004bd0                Power_registerNotify
 .text.Power_releaseConstraint
                0x0000000000004bf4       0x34 /home/runner/work/CatSneeze_toolkit/CatSneeze_toolkit/_ti_sdk/simplelink_cc13xx_cc26xx_sdk_8_32_00_07/source/ti/drivers/lib/gcc/m4f/drivers_cc13x2x7.a(PowerCC26X2.c.obj)
                0x0000000000004bf4                Power_releaseConstraint
 .text.Power_releaseDependency
                0x0000000000004c28       0xc8 /home/runner/work/CatSneeze_toolkit/CatSneeze_toolkit/_ti_sdk/simplelink_cc13xx_cc26xx_sdk_8_32_00_07/source/ti/drivers/lib/gcc/m4f/drivers_cc13x2x7.a(PowerCC26X2.c.obj)
                0x0000000000004c28                Power_releaseDependency
 .text.Power_setConstraint
                0x0000000000004cf0       0x2c /home/runner/work/CatSneeze_toolkit/CatSneeze_toolkit/_ti_sdk/simplelink_cc13xx_cc26xx_sdk_8_32_00_07/source/ti/drivers/lib/gcc/m4f/drivers_cc13x2x7.a(PowerCC26X2.c.obj)
                0x0000000000004cf0                Power_setConstraint
 .text.Power_setDependency
                0x0000000000004d1c       0xd4 /home/runner/work/CatSneeze_toolkit/CatSneeze_toolkit/_ti_sdk/simplelink_cc13xx_cc26xx_sdk_8_32_00_07/source/ti/drivers/lib/gcc/m4f/drivers_cc13x2x7.a(PowerCC26X2.c.obj)
                0x0000000000004d1c                Power_setDependency
 .text.Power_sleep
                0x0000000000004df0      0x1e4 /home/runner/work/CatSneeze_toolkit/CatSneeze_toolkit/_ti_sdk/simplelink_cc13xx_cc26xx_sdk_8_32_00_07/source/ti/drivers/lib/gcc/m4f/drivers_cc13x2x7.a(PowerCC26X2.c.obj)
                0x0000000000004df0                Power_sleep
 .text.PowerCC26XX_calibrate
                0x0000000000004fd4       0x18 /home/runner/work/CatSneeze_toolkit/CatSneeze_toolkit/_ti_sdk/simplelink_cc13xx_cc26xx_sdk_8_32_00_07/source/ti/drivers/lib/gcc/m4f/drivers_cc13x2x7.a(PowerCC26X2.c.obj)
                0x0000000000004fd4                PowerCC26XX_calibrate
 .text.PowerCC26XX_isStableXOSC_HF
                0x0000000000004fec       0x30 /home/runner/work/CatSneeze_toolkit/CatSneeze_toolkit/_ti_sdk/simplelink_cc13xx_cc26xx_sdk_8_32_00_07/source/ti/drivers/lib/gcc/m4f/drivers_cc13x2x7.a(PowerCC26X2.c.obj)
                0x0000000000004fec                PowerCC26XX_isStableXOSC_HF
 .text.PowerCC26XX_switchXOSC_HF
                0x000000000000501c       0x78 /home/runner/work/CatSneeze_toolkit/CatSneeze_toolkit/_ti_sdk/simplelink_cc13xx_cc26xx_sdk_8_32_00_07/source/ti/drivers/lib/gcc/m4f/drivers_cc13x2x7.a(PowerCC26X2.c.obj)
                0x000000000000501c                PowerCC26XX_switchXOSC_HF
 .text.PowerCC26X2_initiateCalibration
                0x0000000000005094       0x64 /home/runner/work/CatSneeze_toolkit/CatSneeze_toolkit/_ti_sdk/simplelink_cc13xx_cc26xx_sdk_8_32_00_07/source/ti/drivers/lib/gcc/m4f/drivers_cc13x2x7.a(PowerCC26X2_calibrateRCOSC.c.obj)
                0x0000000000005094                PowerCC26X2_initiateCalibration
 .text.PowerCC26X2_auxISR
                0x00000000000050f8      0x2b4 /home/runner/work/CatSneeze_toolkit/CatSneeze_toolkit/_ti_sdk/simplelink_cc13xx_cc26xx_sdk_8_32_00_07/source/ti/drivers/lib/gcc/m4f/drivers_cc13x2x7.a(PowerCC26X2_calibrateRCOSC.c.obj)
                0x00000000000050f8                PowerCC26X2_auxISR
 .text.PowerCC26X2_calibrate
                0x00000000000053ac      0x110 /home/runner/work/CatSneeze_toolkit/CatSneeze_toolkit/_ti_sdk/simplelink_cc13xx_cc26xx_sdk_8_32_00_07/source/ti/drivers/lib/gcc/m4f/drivers_cc13x2x7.a(PowerCC26X2_calibrateRCOSC.c.obj)
                0x00000000000053ac                PowerCC26X2_calibrate
 .text.PowerCC26X2_RCOSC_clockFunc
                0x00000000000054bc       0x44 /home/runner/work/CatSneeze_toolkit/CatSneeze_toolkit/_ti_sdk/simplelink_cc13xx_cc26xx_sdk_8_32_00_07/source/ti/drivers/lib/gcc/m4f/drivers_cc13x2x7.a(PowerCC26X2_calibrateRCOSC.c.obj)
                0x00000000000054bc                PowerCC26X2_RCOSC_clockFunc
 .text.UART2_Params_init
                0x0000000000005500       0x24 /home/runner/work/CatSneeze_toolkit/CatSneeze_toolkit/_ti_sdk/simplelink_cc13xx_cc26xx_sdk_8_32_00_07/source/ti/drivers/lib/gcc/m4f/drivers_cc13x2x7.a(UART2.c.obj)
                0x0000000000005500                UART2_Params_init
 .text.UART2_rxEnable
                0x0000000000005524       0x44 /home/runner/work/CatSneeze_toolkit/CatSneeze_toolkit/_ti_sdk/simplelink_cc13xx_cc26xx_sdk_8_32_00_07/source/ti/drivers/lib/gcc/m4f/drivers_cc13x2x7.a(UART2.c.obj)
                0x0000000000005524                UART2_rxEnable
 .text.UART2_readTimeout
                0x0000000000005568      0x1b8 /home/runner/work/CatSneeze_toolkit/CatSneeze_toolkit/_ti_sdk/simplelink_cc13xx_cc26xx_sdk_8_32_00_07/source/ti/drivers/lib/gcc/m4f/drivers_cc13x2x7.a(UART2.c.obj)
                0x0000000000005568                UART2_readTimeout
 .text.UART2_readFull
                0x0000000000005720       0x50 /home/runner/work/CatSneeze_toolkit/CatSneeze_toolkit/_ti_sdk/simplelink_cc13xx_cc26xx_sdk_8_32_00_07/source/ti/drivers/lib/gcc/m4f/drivers_cc13x2x7.a(UART2.c.obj)
                0x0000000000005720                UART2_readFull
 .text.UART2_read
                0x0000000000005770       0x24 /home/runner/work/CatSneeze_toolkit/CatSneeze_toolkit/_ti_sdk/simplelink_cc13xx_cc26xx_sdk_8_32_00_07/source/ti/drivers/lib/gcc/m4f/drivers_cc13x2x7.a(UART2.c.obj)
                0x0000000000005770                UART2_read
 .text.UART2_writeTimeoutBlocking
                0x0000000000005794      0x180 /home/runner/work/CatSneeze_toolkit/CatSneeze_toolkit/_ti_sdk/simplelink_cc13xx_cc26xx_sdk_8_32_00_07/source/ti/drivers/lib/gcc/m4f/drivers_cc13x2x7.a(UART2.c.obj)
                0x0000000000005794                UART2_writeTimeoutBlocking
 .text.UART2_writeTimeoutNonblocking
                0x0000000000005914      0x128 /home/runner/work/CatSneeze_toolkit/CatSneeze_toolkit/_ti_sdk/simplelink_cc13xx_cc26xx_sdk_8_32_00_07/source/ti/drivers/lib/gcc/m4f/drivers_cc13x2x7.a(UART2.c.obj)
                0x0000000000005914                UART2_writeTimeoutNonblocking
 .text.UART2_writeTimeout
                0x0000000000005a3c       0x24 /home/runner/work/CatSneeze_toolkit/CatSneeze_toolkit/_ti_sdk/simplelink_cc13xx_cc26xx_sdk_8_32_00_07/source/ti/drivers/lib/gcc/m4f/drivers_cc13x2x7.a(UART2.c.obj)
                0x0000000000005a3c                UART2_writeTimeout
 .text.UART2_write
                0x0000000000005a60       0x14 /home/runner/work/CatSneeze_toolkit/CatSneeze_toolkit/_ti_sdk/simplelink_cc13xx_cc26xx_sdk_8_32_00_07/source/ti/drivers/lib/gcc/m4f/drivers_cc13x2x7.a(UART2.c.obj)
                0x0000000000005a60                UART2_write
 .text.UART2CC26X2_eventCallback
                0x0000000000005a74        0x4 /home/runner/work/CatSneeze_toolkit/CatSneeze_toolkit/_ti_sdk/simplelink_cc13xx_cc26xx_sdk_8_32_00_07/source/ti/drivers/lib/gcc/m4f/drivers_cc13x2x7.a(UART2CC26X2.c.obj)
 .text.UART2CC26X2_initHw.isra.0
                0x0000000000005a78      0x130 /home/runner/work/CatSneeze_toolkit/CatSneeze_toolkit/_ti_sdk/simplelink_cc13xx_cc26xx_sdk_8_32_00_07/source/ti/drivers/lib/gcc/m4f/drivers_cc13x2x7.a(UART2CC26X2.c.obj)
 .text.UART2CC26X2_postNotifyFxn
                0x0000000000005ba8       0x18 /home/runner/work/CatSneeze_toolkit/CatSneeze_toolkit/_ti_sdk/simplelink_cc13xx_cc26xx_sdk_8_32_00_07/source/ti/drivers/lib/gcc/m4f/drivers_cc13x2x7.a(UART2CC26X2.c.obj)
 .text.UART2_open
                0x0000000000005bc0      0x1bc /home/runner/work/CatSneeze_toolkit/CatSneeze_toolkit/_ti_sdk/simplelink_cc13xx_cc26xx_sdk_8_32_00_07/source/ti/drivers/lib/gcc/m4f/drivers_cc13x2x7.a(UART2CC26X2.c.obj)
                0x0000000000005bc0                UART2_open
 .text.UART2Support_disableTx
                0x0000000000005d7c        0xc /home/runner/work/CatSneeze_toolkit/CatSneeze_toolkit/_ti_sdk/simplelink_cc13xx_cc26xx_sdk_8_32_00_07/source/ti/drivers/lib/gcc/m4f/drivers_cc13x2x7.a(UART2CC26X2.c.obj)
                0x0000000000005d7c                UART2Support_disableTx
 .text.UART2Support_dmaStartTx
                0x0000000000005d88       0xe4 /home/runner/work/CatSneeze_toolkit/CatSneeze_toolkit/_ti_sdk/simplelink_cc13xx_cc26xx_sdk_8_32_00_07/source/ti/drivers/lib/gcc/m4f/drivers_cc13x2x7.a(UART2CC26X2.c.obj)
                0x0000000000005d88                UART2Support_dmaStartTx
 .text.UART2Support_dmaStopRx
                0x0000000000005e6c       0x74 /home/runner/work/CatSneeze_toolkit/CatSneeze_toolkit/_ti_sdk/simplelink_cc13xx_cc26xx_sdk_8_32_00_07/source/ti/drivers/lib/gcc/m4f/drivers_cc13x2x7.a(UART2CC26X2.c.obj)
                0x0000000000005e6c                UART2Support_dmaStopRx
 .text.UART2Support_dmaStartRx
                0x0000000000005ee0       0xfc /home/runner/work/CatSneeze_toolkit/CatSneeze_toolkit/_ti_sdk/simplelink_cc13xx_cc26xx_sdk_8_32_00_07/source/ti/drivers/lib/gcc/m4f/drivers_cc13x2x7.a(UART2CC26X2.c.obj)
                0x0000000000005ee0                UART2Support_dmaStartRx
 .text.UART2Support_dmaStopTx
                0x0000000000005fdc       0x8c /home/runner/work/CatSneeze_toolkit/CatSneeze_toolkit/_ti_sdk/simplelink_cc13xx_cc26xx_sdk_8_32_00_07/source/ti/drivers/lib/gcc/m4f/drivers_cc13x2x7.a(UART2CC26X2.c.obj)
                0x0000000000005fdc                UART2Support_dmaStopTx
 .text.UART2CC26X2_hwiIntFxn
                0x0000000000006068      0x2bc /home/runner/work/CatSneeze_toolkit/CatSneeze_toolkit/_ti_sdk/simplelink_cc13xx_cc26xx_sdk_8_32_00_07/source/ti/drivers/lib/gcc/m4f/drivers_cc13x2x7.a(UART2CC26X2.c.obj)
 .text.UART2Support_enableInts
                0x0000000000006324       0x2c /home/runner/work/CatSneeze_toolkit/CatSneeze_toolkit/_ti_sdk/simplelink_cc13xx_cc26xx_sdk_8_32_00_07/source/ti/drivers/lib/gcc/m4f/drivers_cc13x2x7.a(UART2CC26X2.c.obj)
                0x0000000000006324                UART2Support_enableInts
 .text.UART2Support_enableRx
                0x0000000000006350        0xc /home/runner/work/CatSneeze_toolkit/CatSneeze_toolkit/_ti_sdk/simplelink_cc13xx_cc26xx_sdk_8_32_00_07/source/ti/drivers/lib/gcc/m4f/drivers_cc13x2x7.a(UART2CC26X2.c.obj)
                0x0000000000006350                UART2Support_enableRx
 .text.UART2Support_enableTx
                0x000000000000635c        0xc /home/runner/work/CatSneeze_toolkit/CatSneeze_toolkit/_ti_sdk/simplelink_cc13xx_cc26xx_sdk_8_32_00_07/source/ti/drivers/lib/gcc/m4f/drivers_cc13x2x7.a(UART2CC26X2.c.obj)
                0x000000000000635c                UART2Support_enableTx
 .text.UART2Support_powerSetConstraint
                0x0000000000006368       0x28 /home/runner/work/CatSneeze_toolkit/CatSneeze_toolkit/_ti_sdk/simplelink_cc13xx_cc26xx_sdk_8_32_00_07/source/ti/drivers/lib/gcc/m4f/drivers_cc13x2x7.a(UART2CC26X2.c.obj)
                0x0000000000006368                UART2Support_powerSetConstraint
 .text.UART2Support_sendData
                0x0000000000006390       0x34 /home/runner/work/CatSneeze_toolkit/CatSneeze_toolkit/_ti_sdk/simplelink_cc13xx_cc26xx_sdk_8_32_00_07/source/ti/drivers/lib/gcc/m4f/drivers_cc13x2x7.a(UART2CC26X2.c.obj)
                0x0000000000006390                UART2Support_sendData
 .text.UART2Support_txDone
                0x00000000000063c4       0x10 /home/runner/work/CatSneeze_toolkit/CatSneeze_toolkit/_ti_sdk/simplelink_cc13xx_cc26xx_sdk_8_32_00_07/source/ti/drivers/lib/gcc/m4f/drivers_cc13x2x7.a(UART2CC26X2.c.obj)
                0x00000000000063c4                UART2Support_txDone
 .text.PowerCC26X2_updateSubSecInc
                0x00000000000063d4       0x84 /home/runner/work/CatSneeze_toolkit/CatSneeze_toolkit/_ti_sdk/simplelink_cc13xx_cc26xx_sdk_8_32_00_07/source/ti/drivers/lib/gcc/m4f/drivers_cc13x2x7.a(PowerCC26X2_calibrateRCOSC_helpers.c.obj)
                0x00000000000063d4                PowerCC26X2_updateSubSecInc
 .text.PowerCC26X2_readCtrim
                0x0000000000006458       0x10 /home/runner/work/CatSneeze_toolkit/CatSneeze_toolkit/_ti_sdk/simplelink_cc13xx_cc26xx_sdk_8_32_00_07/source/ti/drivers/lib/gcc/m4f/drivers_cc13x2x7.a(PowerCC26X2_calibrateRCOSC_helpers.c.obj)
                0x0000000000006458                PowerCC26X2_readCtrim
 .text.PowerCC26X2_readCtrimFract
                0x0000000000006468       0x10 /home/runner/work/CatSneeze_toolkit/CatSneeze_toolkit/_ti_sdk/simplelink_cc13xx_cc26xx_sdk_8_32_00_07/source/ti/drivers/lib/gcc/m4f/drivers_cc13x2x7.a(PowerCC26X2_calibrateRCOSC_helpers.c.obj)
                0x0000000000006468                PowerCC26X2_readCtrimFract
 .text.PowerCC26X2_readRtrim
                0x0000000000006478       0x10 /home/runner/work/CatSneeze_toolkit/CatSneeze_toolkit/_ti_sdk/simplelink_cc13xx_cc26xx_sdk_8_32_00_07/source/ti/drivers/lib/gcc/m4f/drivers_cc13x2x7.a(PowerCC26X2_calibrateRCOSC_helpers.c.obj)
                0x0000000000006478                PowerCC26X2_readRtrim
 .text.PowerCC26X2_writeCtrim
                0x0000000000006488       0x28 /home/runner/work/CatSneeze_toolkit/CatSneeze_toolkit/_ti_sdk/simplelink_cc13xx_cc26xx_sdk_8_32_00_07/source/ti/drivers/lib/gcc/m4f/drivers_cc13x2x7.a(PowerCC26X2_calibrateRCOSC_helpers.c.obj)
                0x0000000000006488                PowerCC26X2_writeCtrim
 .text.PowerCC26X2_writeCtrimFract
                0x00000000000064b0       0x28 /home/runner/work/CatSneeze_toolkit/CatSneeze_toolkit/_ti_sdk/simplelink_cc13xx_cc26xx_sdk_8_32_00_07/source/ti/drivers/lib/gcc/m4f/drivers_cc13x2x7.a(PowerCC26X2_calibrateRCOSC_helpers.c.obj)
                0x00000000000064b0                PowerCC26X2_writeCtrimFract
 .text.PowerCC26X2_writeCtrimFractEn
                0x00000000000064d8       0x28 /home/runner/work/CatSneeze_toolkit/CatSneeze_toolkit/_ti_sdk/simplelink_cc13xx_cc26xx_sdk_8_32_00_07/source/ti/drivers/lib/gcc/m4f/drivers_cc13x2x7.a(PowerCC26X2_calibrateRCOSC_helpers.c.obj)
                0x00000000000064d8                PowerCC26X2_writeCtrimFractEn
 .text.PowerCC26X2_writeRtrim
                0x0000000000006500       0x28 /home/runner/work/CatSneeze_toolkit/CatSneeze_toolkit/_ti_sdk/simplelink_cc13xx_cc26xx_sdk_8_32_00_07/source/ti/drivers/lib/gcc/m4f/drivers_cc13x2x7.a(PowerCC26X2_calibrateRCOSC_helpers.c.obj)
                0x0000000000006500                PowerCC26X2_writeRtrim
 .text.PowerCC26X2_setTdcClkSrc24M
                0x0000000000006528       0x40 /home/runner/work/CatSneeze_toolkit/CatSneeze_toolkit/_ti_sdk/simplelink_cc13xx_cc26xx_sdk_8_32_00_07/source/ti/drivers/lib/gcc/m4f/drivers_cc13x2x7.a(PowerCC26X2_calibrateRCOSC_helpers.c.obj)
                0x0000000000006528                PowerCC26X2_setTdcClkSrc24M
 .text.PowerCC26X2_setAclkRefSrc
                0x0000000000006568       0x44 /home/runner/work/CatSneeze_toolkit/CatSneeze_toolkit/_ti_sdk/simplelink_cc13xx_cc26xx_sdk_8_32_00_07/source/ti/drivers/lib/gcc/m4f/drivers_cc13x2x7.a(PowerCC26X2_calibrateRCOSC_helpers.c.obj)
                0x0000000000006568                PowerCC26X2_setAclkRefSrc
 .text.PowerCC26X2_oscCtlClearXtal
                0x00000000000065ac       0x10 /home/runner/work/CatSneeze_toolkit/CatSneeze_toolkit/_ti_sdk/simplelink_cc13xx_cc26xx_sdk_8_32_00_07/source/ti/drivers/lib/gcc/m4f/drivers_cc13x2x7.a(PowerCC26X2_helpers.c.obj)
                0x00000000000065ac                PowerCC26X2_oscCtlClearXtal
 .text.PowerCC26X2_prcmEnableCacheRetention
                0x00000000000065bc       0x14 /home/runner/work/CatSneeze_toolkit/CatSneeze_toolkit/_ti_sdk/simplelink_cc13xx_cc26xx_sdk_8_32_00_07/source/ti/drivers/lib/gcc/m4f/drivers_cc13x2x7.a(PowerCC26X2_helpers.c.obj)
                0x00000000000065bc                PowerCC26X2_prcmEnableCacheRetention
 .text.PowerCC26X2_oschfSwitchToRcosc
                0x00000000000065d0        0x4 /home/runner/work/CatSneeze_toolkit/CatSneeze_toolkit/_ti_sdk/simplelink_cc13xx_cc26xx_sdk_8_32_00_07/source/ti/drivers/lib/gcc/m4f/drivers_cc13x2x7.a(PowerCC26X2_helpers.c.obj)
                0x00000000000065d0                PowerCC26X2_oschfSwitchToRcosc
 .text.PowerCC26X2_oscClockSourceGet
                0x00000000000065d4        0xc /home/runner/work/CatSneeze_toolkit/CatSneeze_toolkit/_ti_sdk/simplelink_cc13xx_cc26xx_sdk_8_32_00_07/source/ti/drivers/lib/gcc/m4f/drivers_cc13x2x7.a(PowerCC26X2_helpers.c.obj)
                0x00000000000065d4                PowerCC26X2_oscClockSourceGet
 .text.PowerCC26X2_oscDisableQualifiers
                0x00000000000065e0       0x40 /home/runner/work/CatSneeze_toolkit/CatSneeze_toolkit/_ti_sdk/simplelink_cc13xx_cc26xx_sdk_8_32_00_07/source/ti/drivers/lib/gcc/m4f/drivers_cc13x2x7.a(PowerCC26X2_helpers.c.obj)
                0x00000000000065e0                PowerCC26X2_oscDisableQualifiers
 .text.PowerCC26X2_getOscHfSourceReady
                0x0000000000006620       0x24 /home/runner/work/CatSneeze_toolkit/CatSneeze_toolkit/_ti_sdk/simplelink_cc13xx_cc26xx_sdk_8_32_00_07/source/ti/drivers/lib/gcc/m4f/drivers_cc13x2x7.a(PowerCC26X2_helpers.c.obj)
                0x0000000000006620                PowerCC26X2_getOscHfSourceReady
 .text.PowerCC26X2_oschfTrySwitchToXosc
                0x0000000000006644        0x8 /home/runner/work/CatSneeze_toolkit/CatSneeze_toolkit/_ti_sdk/simplelink_cc13xx_cc26xx_sdk_8_32_00_07/source/ti/drivers/lib/gcc/m4f/drivers_cc13x2x7.a(PowerCC26X2_helpers.c.obj)
                0x0000000000006644                PowerCC26X2_oschfTrySwitchToXosc
 .text.PowerCC26X2_enableTCXOQual
                0x000000000000664c       0x24 /home/runner/work/CatSneeze_toolkit/CatSneeze_toolkit/_ti_sdk/simplelink_cc13xx_cc26xx_sdk_8_32_00_07/source/ti/drivers/lib/gcc/m4f/drivers_cc13x2x7.a(PowerCC26X2_helpers.c.obj)
                0x000000000000664c                PowerCC26X2_enableTCXOQual
 .text.PowerCC26X2_disableTCXOQual
                0x0000000000006670       0x24 /home/runner/work/CatSneeze_toolkit/CatSneeze_toolkit/_ti_sdk/simplelink_cc13xx_cc26xx_sdk_8_32_00_07/source/ti/drivers/lib/gcc/m4f/drivers_cc13x2x7.a(PowerCC26X2_helpers.c.obj)
                0x0000000000006670                PowerCC26X2_disableTCXOQual
 .text.PowerCC26X2_turnOnXosc
                0x0000000000006694        0x4 /home/runner/work/CatSneeze_toolkit/CatSneeze_toolkit/_ti_sdk/simplelink_cc13xx_cc26xx_sdk_8_32_00_07/source/ti/drivers/lib/gcc/m4f/drivers_cc13x2x7.a(PowerCC26X2_helpers.c.obj)
                0x0000000000006694                PowerCC26X2_turnOnXosc
 .text.PowerCC26X2_switchToTCXO
                0x0000000000006698       0x10 /home/runner/work/CatSneeze_toolkit/CatSneeze_toolkit/_ti_sdk/simplelink_cc13xx_cc26xx_sdk_8_32_00_07/source/ti/drivers/lib/gcc/m4f/drivers_cc13x2x7.a(PowerCC26X2_helpers.c.obj)
                0x0000000000006698                PowerCC26X2_switchToTCXO
 .text.PowerCC26X2_sysCtrlStandby
                0x00000000000066a8        0xc /home/runner/work/CatSneeze_toolkit/CatSneeze_toolkit/_ti_sdk/simplelink_cc13xx_cc26xx_sdk_8_32_00_07/source/ti/drivers/lib/gcc/m4f/drivers_cc13x2x7.a(PowerCC26X2_helpers.c.obj)
                0x00000000000066a8                PowerCC26X2_sysCtrlStandby
 .text.PowerCC26X2_sysCtrlIdle
                0x00000000000066b4        0x4 /home/runner/work/CatSneeze_toolkit/CatSneeze_toolkit/_ti_sdk/simplelink_cc13xx_cc26xx_sdk_8_32_00_07/source/ti/drivers/lib/gcc/m4f/drivers_cc13x2x7.a(PowerCC26X2_helpers.c.obj)
                0x00000000000066b4                PowerCC26X2_sysCtrlIdle
 .text.PowerCC26X2_setPeriphDeepSleepEnable
                0x00000000000066b8        0xc /home/runner/work/CatSneeze_toolkit/CatSneeze_toolkit/_ti_sdk/simplelink_cc13xx_cc26xx_sdk_8_32_00_07/source/ti/drivers/lib/gcc/m4f/drivers_cc13x2x7.a(PowerCC26X2_helpers.c.obj)
                0x00000000000066b8                PowerCC26X2_setPeriphDeepSleepEnable
 .text.PowerCC26X2_sysCtrlGetResetSource
                0x00000000000066c4        0xc /home/runner/work/CatSneeze_toolkit/CatSneeze_toolkit/_ti_sdk/simplelink_cc13xx_cc26xx_sdk_8_32_00_07/source/ti/drivers/lib/gcc/m4f/drivers_cc13x2x7.a(PowerCC26X2_helpers.c.obj)
                0x00000000000066c4                PowerCC26X2_sysCtrlGetResetSource
 .text.PowerCC26X2_setSubSecIncToXoscLf
                0x00000000000066d0       0x34 /home/runner/work/CatSneeze_toolkit/CatSneeze_toolkit/_ti_sdk/simplelink_cc13xx_cc26xx_sdk_8_32_00_07/source/ti/drivers/lib/gcc/m4f/drivers_cc13x2x7.a(PowerCC26X2_helpers.c.obj)
                0x00000000000066d0                PowerCC26X2_setSubSecIncToXoscLf
 .text.PowerCC26X2_sysCtrlUpdateVoltageRegulator
                0x0000000000006704        0xc /home/runner/work/CatSneeze_toolkit/CatSneeze_toolkit/_ti_sdk/simplelink_cc13xx_cc26xx_sdk_8_32_00_07/source/ti/drivers/lib/gcc/m4f/drivers_cc13x2x7.a(PowerCC26X2_helpers.c.obj)
                0x0000000000006704                PowerCC26X2_sysCtrlUpdateVoltageRegulator
 .text.RingBuf_construct
                0x0000000000006710       0x18 /home/runner/work/CatSneeze_toolkit/CatSneeze_toolkit/_ti_sdk/simplelink_cc13xx_cc26xx_sdk_8_32_00_07/source/ti/drivers/lib/gcc/m4f/drivers_cc13x2x7.a(RingBuf.c.obj)
                0x0000000000006710                RingBuf_construct
 .text.RingBuf_getConsume
                0x0000000000006728       0x30 /home/runner/work/CatSneeze_toolkit/CatSneeze_toolkit/_ti_sdk/simplelink_cc13xx_cc26xx_sdk_8_32_00_07/source/ti/drivers/lib/gcc/m4f/drivers_cc13x2x7.a(RingBuf.c.obj)
                0x0000000000006728                RingBuf_getConsume
 .text.RingBuf_getCount
                0x0000000000006758        0x4 /home/runner/work/CatSneeze_toolkit/CatSneeze_toolkit/_ti_sdk/simplelink_cc13xx_cc26xx_sdk_8_32_00_07/source/ti/drivers/lib/gcc/m4f/drivers_cc13x2x7.a(RingBuf.c.obj)
                0x0000000000006758                RingBuf_getCount
 .text.RingBuf_getPointer
                0x000000000000675c       0x28 /home/runner/work/CatSneeze_toolkit/CatSneeze_toolkit/_ti_sdk/simplelink_cc13xx_cc26xx_sdk_8_32_00_07/source/ti/drivers/lib/gcc/m4f/drivers_cc13x2x7.a(RingBuf.c.obj)
                0x000000000000675c                RingBuf_getPointer
 .text.RingBuf_put
                0x0000000000006784       0x48 /home/runner/work/CatSneeze_toolkit/CatSneeze_toolkit/_ti_sdk/simplelink_cc13xx_cc26xx_sdk_8_32_00_07/source/ti/drivers/lib/gcc/m4f/drivers_cc13x2x7.a(RingBuf.c.obj)
                0x0000000000006784                RingBuf_put
 .text.RingBuf_putAdvance
                0x00000000000067cc       0x3c /home/runner/work/CatSneeze_toolkit/CatSneeze_toolkit/_ti_sdk/simplelink_cc13xx_cc26xx_sdk_8_32_00_07/source/ti/drivers/lib/gcc/m4f/drivers_cc13x2x7.a(RingBuf.c.obj)
                0x00000000000067cc                RingBuf_putAdvance
 .text.RingBuf_putPointer
                0x0000000000006808       0x34 /home/runner/work/CatSneeze_toolkit/CatSneeze_toolkit/_ti_sdk/simplelink_cc13xx_cc26xx_sdk_8_32_00_07/source/ti/drivers/lib/gcc/m4f/drivers_cc13x2x7.a(RingBuf.c.obj)
                0x0000000000006808                RingBuf_putPointer
 .text.UDMACC26XX_hwiIntFxn
                0x000000000000683c        0xc /home/runner/work/CatSneeze_toolkit/CatSneeze_toolkit/_ti_sdk/simplelink_cc13xx_cc26xx_sdk_8_32_00_07/source/ti/drivers/lib/gcc/m4f/drivers_cc13x2x7.a(UDMACC26XX.c.obj)
                0x000000000000683c                UDMACC26XX_hwiIntFxn
 .text.UDMACC26XX_open
                0x0000000000006848       0x6c /home/runner/work/CatSneeze_toolkit/CatSneeze_toolkit/_ti_sdk/simplelink_cc13xx_cc26xx_sdk_8_32_00_07/source/ti/drivers/lib/gcc/m4f/drivers_cc13x2x7.a(UDMACC26XX.c.obj)
                0x0000000000006848                UDMACC26XX_open
 .text.GPIO_setConfigAndMux
                0x00000000000068b4       0xa4 /home/runner/work/CatSneeze_toolkit/CatSneeze_toolkit/_ti_sdk/simplelink_cc13xx_cc26xx_sdk_8_32_00_07/source/ti/drivers/lib/gcc/m4f/drivers_cc13x2x7.a(GPIOCC26XX.c.obj)
                0x00000000000068b4                GPIO_setConfigAndMux
 .text.NoRTOS_start
                0x0000000000006958        0x4 /home/runner/work/CatSneeze_toolkit/CatSneeze_toolkit/_ti_sdk/simplelink_cc13xx_cc26xx_sdk_8_32_00_07/kernel/nortos/lib/gcc/m4f/nortos_cc13x2x7.a(NoRTOS.c.obj)
                0x0000000000006958                NoRTOS_start
 .text.clkFxn   0x000000000000695c        0x4 /home/runner/work/CatSneeze_toolkit/CatSneeze_toolkit/_ti_sdk/simplelink_cc13xx_cc26xx_sdk_8_32_00_07/kernel/nortos/lib/gcc/m4f/nortos_cc13x2x7.a(SemaphoreP_nortos.c.obj)
                0x000000000000695c                clkFxn
 .text.SemaphoreP_construct
                0x0000000000006960       0x60 /home/runner/work/CatSneeze_toolkit/CatSneeze_toolkit/_ti_sdk/simplelink_cc13xx_cc26xx_sdk_8_32_00_07/kernel/nortos/lib/gcc/m4f/nortos_cc13x2x7.a(SemaphoreP_nortos.c.obj)
                0x0000000000006960                SemaphoreP_construct
 .text.SemaphoreP_constructBinary
                0x00000000000069c0       0x3c /home/runner/work/CatSneeze_toolkit/CatSneeze_toolkit/_ti_sdk/simplelink_cc13xx_cc26xx_sdk_8_32_00_07/kernel/nortos/lib/gcc/m4f/nortos_cc13x2x7.a(SemaphoreP_nortos.c.obj)
                0x00000000000069c0                SemaphoreP_constructBinary
 .text.SemaphoreP_destruct
                0x00000000000069fc        0x4 /home/runner/work/CatSneeze_toolkit/CatSneeze_toolkit/_ti_sdk/simplelink_cc13xx_cc26xx_sdk_8_32_00_07/kernel/nortos/lib/gcc/m4f/nortos_cc13x2x7.a(SemaphoreP_nortos.c.obj)
                0x00000000000069fc                SemaphoreP_destruct
 .text.SemaphoreP_pend
                0x0000000000006a00      0x100 /home/runner/work/CatSneeze_toolkit/CatSneeze_toolkit/_ti_sdk/simplelink_cc13xx_cc26xx_sdk_8_32_00_07/kernel/nortos/lib/gcc/m4f/nortos_cc13x2x7.a(SemaphoreP_nortos.c.obj)
                0x0000000000006a00                SemaphoreP_pend
 .text.SemaphoreP_post
                0x0000000000006b00       0x44 /home/runner/work/CatSneeze_toolkit/CatSneeze_toolkit/_ti_sdk/simplelink_cc13xx_cc26xx_sdk_8_32_00_07/kernel/nortos/lib/gcc/m4f/nortos_cc13x2x7.a(SemaphoreP_nortos.c.obj)
                0x0000000000006b00                SemaphoreP_post
 .text.SwiP_Params_init
                0x0000000000006b44       0x10 /home/runner/work/CatSneeze_toolkit/CatSneeze_toolkit/_ti_sdk/simplelink_cc13xx_cc26xx_sdk_8_32_00_07/kernel/nortos/lib/gcc/m4f/nortos_cc13x2x7.a(SwiP_nortos.c.obj)
                0x0000000000006b44                SwiP_Params_init
 .text.SwiP_construct
                0x0000000000006b54      0x114 /home/runner/work/CatSneeze_toolkit/CatSneeze_toolkit/_ti_sdk/simplelink_cc13xx_cc26xx_sdk_8_32_00_07/kernel/nortos/lib/gcc/m4f/nortos_cc13x2x7.a(SwiP_nortos.c.obj)
                0x0000000000006b54                SwiP_construct
 .text.SwiP_disable
                0x0000000000006c68       0x1c /home/runner/work/CatSneeze_toolkit/CatSneeze_toolkit/_ti_sdk/simplelink_cc13xx_cc26xx_sdk_8_32_00_07/kernel/nortos/lib/gcc/m4f/nortos_cc13x2x7.a(SwiP_nortos.c.obj)
                0x0000000000006c68                SwiP_disable
 .text.SwiP_dispatch
                0x0000000000006c84       0xd4 /home/runner/work/CatSneeze_toolkit/CatSneeze_toolkit/_ti_sdk/simplelink_cc13xx_cc26xx_sdk_8_32_00_07/kernel/nortos/lib/gcc/m4f/nortos_cc13x2x7.a(SwiP_nortos.c.obj)
                0x0000000000006c84                SwiP_dispatch
 .text.SwiP_handleHwi
                0x0000000000006d58       0x18 /home/runner/work/CatSneeze_toolkit/CatSneeze_toolkit/_ti_sdk/simplelink_cc13xx_cc26xx_sdk_8_32_00_07/kernel/nortos/lib/gcc/m4f/nortos_cc13x2x7.a(SwiP_nortos.c.obj)
 .text.SwiP_getTrigger
                0x0000000000006d70        0xc /home/runner/work/CatSneeze_toolkit/CatSneeze_toolkit/_ti_sdk/simplelink_cc13xx_cc26xx_sdk_8_32_00_07/kernel/nortos/lib/gcc/m4f/nortos_cc13x2x7.a(SwiP_nortos.c.obj)
                0x0000000000006d70                SwiP_getTrigger
 .text.SwiP_or  0x0000000000006d7c       0x80 /home/runner/work/CatSneeze_toolkit/CatSneeze_toolkit/_ti_sdk/simplelink_cc13xx_cc26xx_sdk_8_32_00_07/kernel/nortos/lib/gcc/m4f/nortos_cc13x2x7.a(SwiP_nortos.c.obj)
                0x0000000000006d7c                SwiP_or
 .text.SwiP_post
                0x0000000000006dfc       0x70 /home/runner/work/CatSneeze_toolkit/CatSneeze_toolkit/_ti_sdk/simplelink_cc13xx_cc26xx_sdk_8_32_00_07/kernel/nortos/lib/gcc/m4f/nortos_cc13x2x7.a(SwiP_nortos.c.obj)
                0x0000000000006dfc                SwiP_post
 .text.SwiP_restore
                0x0000000000006e6c       0x48 /home/runner/work/CatSneeze_toolkit/CatSneeze_toolkit/_ti_sdk/simplelink_cc13xx_cc26xx_sdk_8_32_00_07/kernel/nortos/lib/gcc/m4f/nortos_cc13x2x7.a(SwiP_nortos.c.obj)
                0x0000000000006e6c                SwiP_restore
 .text.ClockP_doTick
                0x0000000000006eb4        0xc /home/runner/work/CatSneeze_toolkit/CatSneeze_toolkit/_ti_sdk/simplelink_cc13xx_cc26xx_sdk_8_32_00_07/kernel/nortos/lib/gcc/m4f/nortos_cc13x2x7.a(ClockPTimer_nortos.c.obj)
                0x0000000000006eb4                ClockP_doTick
 .text.ClockP_startup.part.0
                0x0000000000006ec0       0x84 /home/runner/work/CatSneeze_toolkit/CatSneeze_toolkit/_ti_sdk/simplelink_cc13xx_cc26xx_sdk_8_32_00_07/kernel/nortos/lib/gcc/m4f/nortos_cc13x2x7.a(ClockPTimer_nortos.c.obj)
 .text.ClockP_workFuncDynamic
                0x0000000000006f44      0x154 /home/runner/work/CatSneeze_toolkit/CatSneeze_toolkit/_ti_sdk/simplelink_cc13xx_cc26xx_sdk_8_32_00_07/kernel/nortos/lib/gcc/m4f/nortos_cc13x2x7.a(ClockPTimer_nortos.c.obj)
                0x0000000000006f44                ClockP_workFuncDynamic
 .text.ClockP_Params_init
                0x0000000000007098       0x10 /home/runner/work/CatSneeze_toolkit/CatSneeze_toolkit/_ti_sdk/simplelink_cc13xx_cc26xx_sdk_8_32_00_07/kernel/nortos/lib/gcc/m4f/nortos_cc13x2x7.a(ClockPTimer_nortos.c.obj)
                0x0000000000007098                ClockP_Params_init
 .text.ClockP_startup
                0x00000000000070a8       0x10 /home/runner/work/CatSneeze_toolkit/CatSneeze_toolkit/_ti_sdk/simplelink_cc13xx_cc26xx_sdk_8_32_00_07/kernel/nortos/lib/gcc/m4f/nortos_cc13x2x7.a(ClockPTimer_nortos.c.obj)
                0x00000000000070a8                ClockP_startup
 .text.ClockP_getTicksUntilInterrupt
                0x00000000000070b8       0x30 /home/runner/work/CatSneeze_toolkit/CatSneeze_toolkit/_ti_sdk/simplelink_cc13xx_cc26xx_sdk_8_32_00_07/kernel/nortos/lib/gcc/m4f/nortos_cc13x2x7.a(ClockPTimer_nortos.c.obj)
                0x00000000000070b8                ClockP_getTicksUntilInterrupt
 .text.ClockP_add
                0x00000000000070e8       0x24 /home/runner/work/CatSneeze_toolkit/CatSneeze_toolkit/_ti_sdk/simplelink_cc13xx_cc26xx_sdk_8_32_00_07/kernel/nortos/lib/gcc/m4f/nortos_cc13x2x7.a(ClockPTimer_nortos.c.obj)
                0x00000000000070e8                ClockP_add
 .text.ClockP_destruct
                0x000000000000710c       0x1c /home/runner/work/CatSneeze_toolkit/CatSneeze_toolkit/_ti_sdk/simplelink_cc13xx_cc26xx_sdk_8_32_00_07/kernel/nortos/lib/gcc/m4f/nortos_cc13x2x7.a(ClockPTimer_nortos.c.obj)
                0x000000000000710c                ClockP_destruct
 .text.ClockP_start
                0x0000000000007128       0x98 /home/runner/work/CatSneeze_toolkit/CatSneeze_toolkit/_ti_sdk/simplelink_cc13xx_cc26xx_sdk_8_32_00_07/kernel/nortos/lib/gcc/m4f/nortos_cc13x2x7.a(ClockPTimer_nortos.c.obj)
                0x0000000000007128                ClockP_start
 .text.ClockP_construct
                0x00000000000071c0       0x58 /home/runner/work/CatSneeze_toolkit/CatSneeze_toolkit/_ti_sdk/simplelink_cc13xx_cc26xx_sdk_8_32_00_07/kernel/nortos/lib/gcc/m4f/nortos_cc13x2x7.a(ClockPTimer_nortos.c.obj)
                0x00000000000071c0                ClockP_construct
 .text.ClockP_stop
                0x0000000000007218        0x8 /home/runner/work/CatSneeze_toolkit/CatSneeze_toolkit/_ti_sdk/simplelink_cc13xx_cc26xx_sdk_8_32_00_07/kernel/nortos/lib/gcc/m4f/nortos_cc13x2x7.a(ClockPTimer_nortos.c.obj)
                0x0000000000007218                ClockP_stop
 .text.ClockP_setTimeout
                0x0000000000007220        0x4 /home/runner/work/CatSneeze_toolkit/CatSneeze_toolkit/_ti_sdk/simplelink_cc13xx_cc26xx_sdk_8_32_00_07/kernel/nortos/lib/gcc/m4f/nortos_cc13x2x7.a(ClockPTimer_nortos.c.obj)
                0x0000000000007220                ClockP_setTimeout
 .text.ClockP_getTimeout
                0x0000000000007224       0x30 /home/runner/work/CatSneeze_toolkit/CatSneeze_toolkit/_ti_sdk/simplelink_cc13xx_cc26xx_sdk_8_32_00_07/kernel/nortos/lib/gcc/m4f/nortos_cc13x2x7.a(ClockPTimer_nortos.c.obj)
                0x0000000000007224                ClockP_getTimeout
 .text.ClockP_isActive
                0x0000000000007254        0x4 /home/runner/work/CatSneeze_toolkit/CatSneeze_toolkit/_ti_sdk/simplelink_cc13xx_cc26xx_sdk_8_32_00_07/kernel/nortos/lib/gcc/m4f/nortos_cc13x2x7.a(ClockPTimer_nortos.c.obj)
                0x0000000000007254                ClockP_isActive
 .text.ClockP_getCpuFreq
                0x0000000000007258       0x10 /home/runner/work/CatSneeze_toolkit/CatSneeze_toolkit/_ti_sdk/simplelink_cc13xx_cc26xx_sdk_8_32_00_07/kernel/nortos/lib/gcc/m4f/nortos_cc13x2x7.a(ClockPTimer_nortos.c.obj)
                0x0000000000007258                ClockP_getCpuFreq
 .text.ClockP_getSystemTickPeriod
                0x0000000000007268        0xc /home/runner/work/CatSneeze_toolkit/CatSneeze_toolkit/_ti_sdk/simplelink_cc13xx_cc26xx_sdk_8_32_00_07/kernel/nortos/lib/gcc/m4f/nortos_cc13x2x7.a(ClockPTimer_nortos.c.obj)
                0x0000000000007268                ClockP_getSystemTickPeriod
 .text.ClockP_getSystemTicks
                0x0000000000007274       0x34 /home/runner/work/CatSneeze_toolkit/CatSneeze_toolkit/_ti_sdk/simplelink_cc13xx_cc26xx_sdk_8_32_00_07/kernel/nortos/lib/gcc/m4f/nortos_cc13x2x7.a(ClockPTimer_nortos.c.obj)
                0x0000000000007274                ClockP_getSystemTicks
 .text.ClockP_usleep
                0x00000000000072a8       0x8c /home/runner/work/CatSneeze_toolkit/CatSneeze_toolkit/_ti_sdk/simplelink_cc13xx_cc26xx_sdk_8_32_00_07/kernel/nortos/lib/gcc/m4f/nortos_cc13x2x7.a(ClockPTimer_nortos.c.obj)
                0x00000000000072a8                ClockP_usleep
 .text.QueueP_init
                0x0000000000007334        0x8 /home/runner/work/CatSneeze_toolkit/CatSneeze_toolkit/_ti_sdk/simplelink_cc13xx_cc26xx_sdk_8_32_00_07/kernel/nortos/lib/gcc/m4f/nortos_cc13x2x7.a(QueueP_nortos.c.obj)
                0x0000000000007334                QueueP_init
 .text.QueueP_empty
                0x000000000000733c        0xc /home/runner/work/CatSneeze_toolkit/CatSneeze_toolkit/_ti_sdk/simplelink_cc13xx_cc26xx_sdk_8_32_00_07/kernel/nortos/lib/gcc/m4f/nortos_cc13x2x7.a(QueueP_nortos.c.obj)
                0x000000000000733c                QueueP_empty
 .text.QueueP_get
                0x0000000000007348       0x1c /home/runner/work/CatSneeze_toolkit/CatSneeze_toolkit/_ti_sdk/simplelink_cc13xx_cc26xx_sdk_8_32_00_07/kernel/nortos/lib/gcc/m4f/nortos_cc13x2x7.a(QueueP_nortos.c.obj)
                0x0000000000007348                QueueP_get
 .text.QueueP_head
                0x0000000000007364        0x4 /home/runner/work/CatSneeze_toolkit/CatSneeze_toolkit/_ti_sdk/simplelink_cc13xx_cc26xx_sdk_8_32_00_07/kernel/nortos/lib/gcc/m4f/nortos_cc13x2x7.a(QueueP_nortos.c.obj)
                0x0000000000007364                QueueP_head
 .text.QueueP_next
                0x0000000000007368        0x4 /home/runner/work/CatSneeze_toolkit/CatSneeze_toolkit/_ti_sdk/simplelink_cc13xx_cc26xx_sdk_8_32_00_07/kernel/nortos/lib/gcc/m4f/nortos_cc13x2x7.a(QueueP_nortos.c.obj)
                0x0000000000007368                QueueP_next
 .text.QueueP_put
                0x000000000000736c       0x20 /home/runner/work/CatSneeze_toolkit/CatSneeze_toolkit/_ti_sdk/simplelink_cc13xx_cc26xx_sdk_8_32_00_07/kernel/nortos/lib/gcc/m4f/nortos_cc13x2x7.a(QueueP_nortos.c.obj)
                0x000000000000736c                QueueP_put
 .text.QueueP_remove
                0x000000000000738c       0x10 /home/runner/work/CatSneeze_toolkit/CatSneeze_toolkit/_ti_sdk/simplelink_cc13xx_cc26xx_sdk_8_32_00_07/kernel/nortos/lib/gcc/m4f/nortos_cc13x2x7.a(QueueP_nortos.c.obj)
                0x000000000000738c                QueueP_remove
 .text.HwiP_dispatch
                0x000000000000739c       0x1c /home/runner/work/CatSneeze_toolkit/CatSneeze_toolkit/_ti_sdk/simplelink_cc13xx_cc26xx_sdk_8_32_00_07/kernel/nortos/lib/gcc/m4f/nortos_cc13x2x7.a(HwiPCC26XX_nortos.c.obj)
 .text.HwiP_enable
                0x00000000000073b8        0x4 /home/runner/work/CatSneeze_toolkit/CatSneeze_toolkit/_ti_sdk/simplelink_cc13xx_cc26xx_sdk_8_32_00_07/kernel/nortos/lib/gcc/m4f/nortos_cc13x2x7.a(HwiPCC26XX_nortos.c.obj)
                0x00000000000073b8                HwiP_enable
 .text.HwiP_disable
                0x00000000000073bc       0x10 /home/runner/work/CatSneeze_toolkit/CatSneeze_toolkit/_ti_sdk/simplelink_cc13xx_cc26xx_sdk_8_32_00_07/kernel/nortos/lib/gcc/m4f/nortos_cc13x2x7.a(HwiPCC26XX_nortos.c.obj)
                0x00000000000073bc                HwiP_disable
 .text.HwiP_restore
                0x00000000000073cc        0x8 /home/runner/work/CatSneeze_toolkit/CatSneeze_toolkit/_ti_sdk/simplelink_cc13xx_cc26xx_sdk_8_32_00_07/kernel/nortos/lib/gcc/m4f/nortos_cc13x2x7.a(HwiPCC26XX_nortos.c.obj)
                0x00000000000073cc                HwiP_restore
 .text.HwiP_enableInterrupt
                0x00000000000073d4        0xc /home/runner/work/CatSneeze_toolkit/CatSneeze_toolkit/_ti_sdk/simplelink_cc13xx_cc26xx_sdk_8_32_00_07/kernel/nortos/lib/gcc/m4f/nortos_cc13x2x7.a(HwiPCC26XX_nortos.c.obj)
                0x00000000000073d4                HwiP_enableInterrupt
 .text.HwiP_interruptsEnabled
                0x00000000000073e0       0x10 /home/runner/work/CatSneeze_toolkit/CatSneeze_toolkit/_ti_sdk/simplelink_cc13xx_cc26xx_sdk_8_32_00_07/kernel/nortos/lib/gcc/m4f/nortos_cc13x2x7.a(HwiPCC26XX_nortos.c.obj)
                0x00000000000073e0                HwiP_interruptsEnabled
 .text.HwiP_construct
                0x00000000000073f0       0x88 /home/runner/work/CatSneeze_toolkit/CatSneeze_toolkit/_ti_sdk/simplelink_cc13xx_cc26xx_sdk_8_32_00_07/kernel/nortos/lib/gcc/m4f/nortos_cc13x2x7.a(HwiPCC26XX_nortos.c.obj)
                0x00000000000073f0                HwiP_construct
 .text.HwiP_Params_init
                0x0000000000007478       0x14 /home/runner/work/CatSneeze_toolkit/CatSneeze_toolkit/_ti_sdk/simplelink_cc13xx_cc26xx_sdk_8_32_00_07/kernel/nortos/lib/gcc/m4f/nortos_cc13x2x7.a(HwiPCC26XX_nortos.c.obj)
                0x0000000000007478                HwiP_Params_init
 .text.HwiP_setFunc
                0x000000000000748c       0x1c /home/runner/work/CatSneeze_toolkit/CatSneeze_toolkit/_ti_sdk/simplelink_cc13xx_cc26xx_sdk_8_32_00_07/kernel/nortos/lib/gcc/m4f/nortos_cc13x2x7.a(HwiPCC26XX_nortos.c.obj)
                0x000000000000748c                HwiP_setFunc
 .text.HwiP_post
                0x00000000000074a8        0xc /home/runner/work/CatSneeze_toolkit/CatSneeze_toolkit/_ti_sdk/simplelink_cc13xx_cc26xx_sdk_8_32_00_07/kernel/nortos/lib/gcc/m4f/nortos_cc13x2x7.a(HwiPCC26XX_nortos.c.obj)
                0x00000000000074a8                HwiP_post
 .text.HwiP_inISR
                0x00000000000074b4       0x14 /home/runner/work/CatSneeze_toolkit/CatSneeze_toolkit/_ti_sdk/simplelink_cc13xx_cc26xx_sdk_8_32_00_07/kernel/nortos/lib/gcc/m4f/nortos_cc13x2x7.a(HwiPCC26XX_nortos.c.obj)
                0x00000000000074b4                HwiP_inISR
 .text.PowerCC26XX_standbyPolicy
                0x00000000000074c8       0xf0 /home/runner/work/CatSneeze_toolkit/CatSneeze_toolkit/_ti_sdk/simplelink_cc13xx_cc26xx_sdk_8_32_00_07/kernel/nortos/lib/gcc/m4f/nortos_cc13x2x7.a(PowerCC26X2_nortos.c.obj)
                0x00000000000074c8                PowerCC26XX_standbyPolicy
 .text.PowerCC26XX_schedulerDisable
                0x00000000000075b8       0x10 /home/runner/work/CatSneeze_toolkit/CatSneeze_toolkit/_ti_sdk/simplelink_cc13xx_cc26xx_sdk_8_32_00_07/kernel/nortos/lib/gcc/m4f/nortos_cc13x2x7.a(PowerCC26X2_nortos.c.obj)
                0x00000000000075b8                PowerCC26XX_schedulerDisable
 .text.PowerCC26XX_schedulerRestore
                0x00000000000075c8        0xc /home/runner/work/CatSneeze_toolkit/CatSneeze_toolkit/_ti_sdk/simplelink_cc13xx_cc26xx_sdk_8_32_00_07/kernel/nortos/lib/gcc/m4f/nortos_cc13x2x7.a(PowerCC26X2_nortos.c.obj)
                0x00000000000075c8                PowerCC26XX_schedulerRestore
 .text.TimerP_dynamicStub
                0x00000000000075d4       0x20 /home/runner/work/CatSneeze_toolkit/CatSneeze_toolkit/_ti_sdk/simplelink_cc13xx_cc26xx_sdk_8_32_00_07/kernel/nortos/lib/gcc/m4f/nortos_cc13x2x7.a(TimerPCC26XX_nortos.c.obj)
                0x00000000000075d4                TimerP_dynamicStub
 .text.TimerP_Params_init
                0x00000000000075f4       0x10 /home/runner/work/CatSneeze_toolkit/CatSneeze_toolkit/_ti_sdk/simplelink_cc13xx_cc26xx_sdk_8_32_00_07/kernel/nortos/lib/gcc/m4f/nortos_cc13x2x7.a(TimerPCC26XX_nortos.c.obj)
                0x00000000000075f4                TimerP_Params_init
 .text.TimerP_construct
                0x0000000000007604       0xf8 /home/runner/work/CatSneeze_toolkit/CatSneeze_toolkit/_ti_sdk/simplelink_cc13xx_cc26xx_sdk_8_32_00_07/kernel/nortos/lib/gcc/m4f/nortos_cc13x2x7.a(TimerPCC26XX_nortos.c.obj)
                0x0000000000007604                TimerP_construct
 .text.TimerP_getMaxTicks
                0x00000000000076fc       0x1c /home/runner/work/CatSneeze_toolkit/CatSneeze_toolkit/_ti_sdk/simplelink_cc13xx_cc26xx_sdk_8_32_00_07/kernel/nortos/lib/gcc/m4f/nortos_cc13x2x7.a(TimerPCC26XX_nortos.c.obj)
                0x00000000000076fc                TimerP_getMaxTicks
 .text.TimerP_setNextTick
                0x0000000000007718       0x54 /home/runner/work/CatSneeze_toolkit/CatSneeze_toolkit/_ti_sdk/simplelink_cc13xx_cc26xx_sdk_8_32_00_07/kernel/nortos/lib/gcc/m4f/nortos_cc13x2x7.a(TimerPCC26XX_nortos.c.obj)
                0x0000000000007718                TimerP_setNextTick
 .text.TimerP_getCount64
                0x000000000000776c        0xc /home/runner/work/CatSneeze_toolkit/CatSneeze_toolkit/_ti_sdk/simplelink_cc13xx_cc26xx_sdk_8_32_00_07/kernel/nortos/lib/gcc/m4f/nortos_cc13x2x7.a(TimerPCC26XX_nortos.c.obj)
                0x000000000000776c                TimerP_getCount64
 .text.TimerP_getCurrentTick
                0x0000000000007778       0x38 /home/runner/work/CatSneeze_toolkit/CatSneeze_toolkit/_ti_sdk/simplelink_cc13xx_cc26xx_sdk_8_32_00_07/kernel/nortos/lib/gcc/m4f/nortos_cc13x2x7.a(TimerPCC26XX_nortos.c.obj)
                0x0000000000007778                TimerP_getCurrentTick
 .text.NOROM_ChipInfo_GetChipType
                0x00000000000077b0       0x58 /home/runner/work/CatSneeze_toolkit/CatSneeze_toolkit/_ti_sdk/simplelink_cc13xx_cc26xx_sdk_8_32_00_07/source/ti/devices/cc13x2x7_cc26x2x7/driverlib/bin/gcc/driverlib.lib(chipinfo.c.obj)
                0x00000000000077b0                NOROM_ChipInfo_GetChipType
 .text.NOROM_ThisLibraryIsFor_CC13x2x7_CC26x2x7_HaltIfViolated
                0x0000000000007808       0x1c /home/runner/work/CatSneeze_toolkit/CatSneeze_toolkit/_ti_sdk/simplelink_cc13xx_cc26xx_sdk_8_32_00_07/source/ti/devices/cc13x2x7_cc26x2x7/driverlib/bin/gcc/driverlib.lib(chipinfo.c.obj)
                0x0000000000007808                NOROM_ThisLibraryIsFor_CC13x2x7_CC26x2x7_HaltIfViolated
 .text.NOROM_CPUcpsid
                0x0000000000007824        0x8 /home/runner/work/CatSneeze_toolkit/CatSneeze_toolkit/_ti_sdk/simplelink_cc13xx_cc26xx_sdk_8_32_00_07/source/ti/devices/cc13x2x7_cc26x2x7/driverlib/bin/gcc/driverlib.lib(cpu.c.obj)
                0x0000000000007824                NOROM_CPUcpsid
 .text.NOROM_CPUprimask
                0x000000000000782c        0x8 /home/runner/work/CatSneeze_toolkit/CatSneeze_toolkit/_ti_sdk/simplelink_cc13xx_cc26xx_sdk_8_32_00_07/source/ti/devices/cc13x2x7_cc26x2x7/driverlib/bin/gcc/driverlib.lib(cpu.c.obj)
                0x000000000000782c                NOROM_CPUprimask
 .text.NOROM_CPUcpsie
                0x0000000000007834        0x8 /home/runner/work/CatSneeze_toolkit/CatSneeze_toolkit/_ti_sdk/simplelink_cc13xx_cc26xx_sdk_8_32_00_07/source/ti/devices/cc13x2x7_cc26x2x7/driverlib/bin/gcc/driverlib.lib(cpu.c.obj)
                0x0000000000007834                NOROM_CPUcpsie
 .text.NOROM_CPUdelay
                0x000000000000783c        0x8 /home/runner/work/CatSneeze_toolkit/CatSneeze_toolkit/_ti_sdk/simplelink_cc13xx_cc26xx_sdk_8_32_00_07/source/ti/devices/cc13x2x7_cc26x2x7/driverlib/bin/gcc/driverlib.lib(cpu.c.obj)
                0x000000000000783c                NOROM_CPUdelay
 .text.NOROM_IntRegister
                0x0000000000007844       0x40 /home/runner/work/CatSneeze_toolkit/CatSneeze_toolkit/_ti_sdk/simplelink_cc13xx_cc26xx_sdk_8_32_00_07/source/ti/devices/cc13x2x7_cc26x2x7/driverlib/bin/gcc/driverlib.lib(interrupt.c.obj)
                0x0000000000007844                NOROM_IntRegister
 .text.NOROM_OSCHF_TurnOnXosc
                0x0000000000007884       0x24 /home/runner/work/CatSneeze_toolkit/CatSneeze_toolkit/_ti_sdk/simplelink_cc13xx_cc26xx_sdk_8_32_00_07/source/ti/devices/cc13x2x7_cc26x2x7/driverlib/bin/gcc/driverlib.lib(osc.c.obj)
                0x0000000000007884                NOROM_OSCHF_TurnOnXosc
 .text.NOROM_OSCHF_AttemptToSwitchToXosc
                0x00000000000078a8       0x88 /home/runner/work/CatSneeze_toolkit/CatSneeze_toolkit/_ti_sdk/simplelink_cc13xx_cc26xx_sdk_8_32_00_07/source/ti/devices/cc13x2x7_cc26x2x7/driverlib/bin/gcc/driverlib.lib(osc.c.obj)
                0x00000000000078a8                NOROM_OSCHF_AttemptToSwitchToXosc
 .text.NOROM_OSCHF_SwitchToRcOscTurnOffXosc
                0x0000000000007930       0x6c /home/runner/work/CatSneeze_toolkit/CatSneeze_toolkit/_ti_sdk/simplelink_cc13xx_cc26xx_sdk_8_32_00_07/source/ti/devices/cc13x2x7_cc26x2x7/driverlib/bin/gcc/driverlib.lib(osc.c.obj)
                0x0000000000007930                NOROM_OSCHF_SwitchToRcOscTurnOffXosc
 .text.NOROM_OSC_HPOSCRelativeFrequencyOffsetGet
                0x000000000000799c       0x40 /home/runner/work/CatSneeze_toolkit/CatSneeze_toolkit/_ti_sdk/simplelink_cc13xx_cc26xx_sdk_8_32_00_07/source/ti/devices/cc13x2x7_cc26x2x7/driverlib/bin/gcc/driverlib.lib(osc.c.obj)
                0x000000000000799c                NOROM_OSC_HPOSCRelativeFrequencyOffsetGet
 .text.NOROM_PRCMPowerDomainsAllOff
                0x00000000000079dc       0x58 /home/runner/work/CatSneeze_toolkit/CatSneeze_toolkit/_ti_sdk/simplelink_cc13xx_cc26xx_sdk_8_32_00_07/source/ti/devices/cc13x2x7_cc26x2x7/driverlib/bin/gcc/driverlib.lib(prcm.c.obj)
                0x00000000000079dc                NOROM_PRCMPowerDomainsAllOff
 .text.NOROM_PRCMPowerDomainsAllOn
                0x0000000000007a34       0x40 /home/runner/work/CatSneeze_toolkit/CatSneeze_toolkit/_ti_sdk/simplelink_cc13xx_cc26xx_sdk_8_32_00_07/source/ti/devices/cc13x2x7_cc26x2x7/driverlib/bin/gcc/driverlib.lib(prcm.c.obj)
                0x0000000000007a34                NOROM_PRCMPowerDomainsAllOn
 .text.TrimAfterColdResetWakeupFromShutDown
                0x0000000000007a74       0xd4 /home/runner/work/CatSneeze_toolkit/CatSneeze_toolkit/_ti_sdk/simplelink_cc13xx_cc26xx_sdk_8_32_00_07/source/ti/devices/cc13x2x7_cc26x2x7/driverlib/bin/gcc/driverlib.lib(setup.c.obj)
 .text.NOROM_SetupTrimDevice
                0x0000000000007b48       0xe8 /home/runner/work/CatSneeze_toolkit/CatSneeze_toolkit/_ti_sdk/simplelink_cc13xx_cc26xx_sdk_8_32_00_07/source/ti/devices/cc13x2x7_cc26x2x7/driverlib/bin/gcc/driverlib.lib(setup.c.obj)
                0x0000000000007b48                NOROM_SetupTrimDevice
 .text.NOROM_SysCtrlIdle
                0x0000000000007c30       0x3c /home/runner/work/CatSneeze_toolkit/CatSneeze_toolkit/_ti_sdk/simplelink_cc13xx_cc26xx_sdk_8_32_00_07/source/ti/devices/cc13x2x7_cc26x2x7/driverlib/bin/gcc/driverlib.lib(sys_ctrl.c.obj)
                0x0000000000007c30                NOROM_SysCtrlIdle
 .text.NOROM_SysCtrlStandby
                0x0000000000007c6c      0x10c /home/runner/work/CatSneeze_toolkit/CatSneeze_toolkit/_ti_sdk/simplelink_cc13xx_cc26xx_sdk_8_32_00_07/source/ti/devices/cc13x2x7_cc26x2x7/driverlib/bin/gcc/driverlib.lib(sys_ctrl.c.obj)
                0x0000000000007c6c                NOROM_SysCtrlStandby
 .text.NOROM_AUXSYSIFOpModeChange
                0x0000000000007d78       0x38 /home/runner/work/CatSneeze_toolkit/CatSneeze_toolkit/_ti_sdk/simplelink_cc13xx_cc26xx_sdk_8_32_00_07/source/ti/devices/cc13x2x7_cc26x2x7/driverlib/bin/gcc/driverlib.lib(aux_sysif.c.obj)
                0x0000000000007d78                NOROM_AUXSYSIFOpModeChange
                0x0000000000007db0                . = ALIGN (0x4)
 *(.ctors)
                0x0000000000007db0                . = ALIGN (0x4)
 *(.dtors)
                0x0000000000007db0                . = ALIGN (0x4)
                0x0000000000007db0                __init_array_start = .
 *(.init_array*)
                0x0000000000007db0                __init_array_end = .
 *(.init)
 *(.fini*)
                [!provide]                        PROVIDE (__etext = .)
                [!provide]                        PROVIDE (_etext = .)
                [!provide]                        PROVIDE (etext = .)

.glue_7         0x0000000000007db0        0x0
 .glue_7        0x0000000000007db0        0x0 linker stubs

.glue_7t        0x0000000000007db0        0x0
 .glue_7t       0x0000000000007db0        0x0 linker stubs

.vfp11_veneer   0x0000000000007db0        0x0
 .vfp11_veneer  0x0000000000007db0        0x0 linker stubs

.v4_bx          0x0000000000007db0        0x0
 .v4_bx         0x0000000000007db0        0x0 linker stubs

.iplt           0x0000000000007db0        0x0
 .iplt          0x0000000000007db0        0x0 CMakeFiles/nrf24_sniffer.dir/nrf24_sniffer.c.obj

.rodata         0x0000000000007db0      0x9a9
 *(.rodata)
 .rodata        0x0000000000007db0      0x101 /usr/lib/gcc/arm-none-eabi/10.3.1/../../../arm-none-eabi/lib/thumb/v7e-m+fp/hard/libc_nano.a(lib_a-ctype_.o)
                0x0000000000007db0                _ctype_
 *(.rodata.*)
 .rodata.handle_command.str1.1
                0x0000000000007eb1      0x266 CMakeFiles/nrf24_sniffer.dir/nrf24_sniffer.c.obj
 .rodata.process_and_report.str1.1
                0x0000000000008117       0xa3 CMakeFiles/nrf24_sniffer.dir/nrf24_sniffer.c.obj
 .rodata.main.str1.1
                0x00000000000081ba       0xc9 CMakeFiles/nrf24_sniffer.dir/nrf24_sniffer.c.obj
                                         0xdc (size before relaxing)
 .rodata.addr_widths.2
                0x0000000000008283        0x3 CMakeFiles/nrf24_sniffer.dir/nrf24_sniffer.c.obj
 .rodata.crc_types.1
                0x0000000000008286        0x2 CMakeFiles/nrf24_sniffer.dir/nrf24_sniffer.c.obj
 .rodata.hex.0  0x0000000000008288       0x11 CMakeFiles/nrf24_sniffer.dir/nrf24_sniffer.c.obj
 *fill*         0x0000000000008299        0x3 
 .rodata.PowerCC26X2_config
                0x000000000000829c       0x14 CMakeFiles/nrf24_sniffer.dir/syscfg_pregenerated/ti_drivers_config.c.obj
                0x000000000000829c                PowerCC26X2_config
 .rodata.RFCC26XX_hwAttrs
                0x00000000000082b0        0xc CMakeFiles/nrf24_sniffer.dir/syscfg_pregenerated/ti_drivers_config.c.obj
                0x00000000000082b0                RFCC26XX_hwAttrs
 .rodata.UART2_config
                0x00000000000082bc        0x8 CMakeFiles/nrf24_sniffer.dir/syscfg_pregenerated/ti_drivers_config.c.obj
                0x00000000000082bc                UART2_config
 .rodata.UART2_count
                0x00000000000082c4        0x1 CMakeFiles/nrf24_sniffer.dir/syscfg_pregenerated/ti_drivers_config.c.obj
                0x00000000000082c4                UART2_count
 *fill*         0x00000000000082c5        0x3 
 .rodata.UDMACC26XX_config
                0x00000000000082c8        0x8 CMakeFiles/nrf24_sniffer.dir/syscfg_pregenerated/ti_drivers_config.c.obj
                0x00000000000082c8                UDMACC26XX_config
 .rodata.uart2CC26X2HWAttrs
                0x00000000000082d0       0x58 CMakeFiles/nrf24_sniffer.dir/syscfg_pregenerated/ti_drivers_config.c.obj
                0x00000000000082d0                uart2CC26X2HWAttrs
 .rodata.udmaCC26XXHWAttrs
                0x0000000000008328        0x8 CMakeFiles/nrf24_sniffer.dir/syscfg_pregenerated/ti_drivers_config.c.obj
                0x0000000000008328                udmaCC26XXHWAttrs
 .rodata.RF_defaultParams
                0x0000000000008330       0x20 /home/runner/work/CatSneeze_toolkit/CatSneeze_toolkit/_ti_sdk/simplelink_cc13xx_cc26xx_sdk_8_32_00_07/source/ti/drivers/rf/lib/gcc/m4f/rf_multiMode_cc13x2.a(RFCC26X2_multiMode.c.cc13x2.gcc.o)
 .rodata.CSWTCH.10
                0x0000000000008350       0x3e /home/runner/work/CatSneeze_toolkit/CatSneeze_toolkit/_ti_sdk/simplelink_cc13xx_cc26xx_sdk_8_32_00_07/source/ti/drivers/rf/lib/gcc/m4f/rf_multiMode_cc13x2.a(rfc.c.cc13x2.gcc.o)
 *fill*         0x000000000000838e        0x2 
 .rodata.patchImageProp
                0x0000000000008390      0x2e0 /home/runner/work/CatSneeze_toolkit/CatSneeze_toolkit/_ti_sdk/simplelink_cc13xx_cc26xx_sdk_8_32_00_07/source/ti/drivers/rf/lib/gcc/m4f/rf_multiMode_cc13x2.a(rf_patch_cpe_prop.c.cc13x2.gcc.o)
 .rodata.resourceDB
                0x0000000000008670       0x54 /home/runner/work/CatSneeze_toolkit/CatSneeze_toolkit/_ti_sdk/simplelink_cc13xx_cc26xx_sdk_8_32_00_07/source/ti/drivers/lib/gcc/m4f/drivers_cc13x2x7.a(PowerCC26X2.c.obj)
                0x0000000000008670                resourceDB
 .rodata.UART2_defaultParams
                0x00000000000086c4       0x24 /home/runner/work/CatSneeze_toolkit/CatSneeze_toolkit/_ti_sdk/simplelink_cc13xx_cc26xx_sdk_8_32_00_07/source/ti/drivers/lib/gcc/m4f/drivers_cc13x2x7.a(UART2.c.obj)
                0x00000000000086c4                UART2_defaultParams
 .rodata.rxFifoThreshold
                0x00000000000086e8        0x5 /home/runner/work/CatSneeze_toolkit/CatSneeze_toolkit/_ti_sdk/simplelink_cc13xx_cc26xx_sdk_8_32_00_07/source/ti/drivers/lib/gcc/m4f/drivers_cc13x2x7.a(UART2CC26X2.c.obj)
 *fill*         0x00000000000086ed        0x3 
 .rodata.txFifoThreshold
                0x00000000000086f0        0x5 /home/runner/work/CatSneeze_toolkit/CatSneeze_toolkit/_ti_sdk/simplelink_cc13xx_cc26xx_sdk_8_32_00_07/source/ti/drivers/lib/gcc/m4f/drivers_cc13x2x7.a(UART2CC26X2.c.obj)
 *fill*         0x00000000000086f5        0x3 
 .rodata.parityType
                0x00000000000086f8        0x5 /home/runner/work/CatSneeze_toolkit/CatSneeze_toolkit/_ti_sdk/simplelink_cc13xx_cc26xx_sdk_8_32_00_07/source/ti/drivers/lib/gcc/m4f/drivers_cc13x2x7.a(UART2CC26X2.c.obj)
 *fill*         0x00000000000086fd        0x3 
 .rodata.stopBits
                0x0000000000008700        0x2 /home/runner/work/CatSneeze_toolkit/CatSneeze_toolkit/_ti_sdk/simplelink_cc13xx_cc26xx_sdk_8_32_00_07/source/ti/drivers/lib/gcc/m4f/drivers_cc13x2x7.a(UART2CC26X2.c.obj)
 *fill*         0x0000000000008702        0x2 
 .rodata.dataLength
                0x0000000000008704        0x4 /home/runner/work/CatSneeze_toolkit/CatSneeze_toolkit/_ti_sdk/simplelink_cc13xx_cc26xx_sdk_8_32_00_07/source/ti/drivers/lib/gcc/m4f/drivers_cc13x2x7.a(UART2CC26X2.c.obj)
 .rodata.SwiP_defaultParams
                0x0000000000008708       0x10 /home/runner/work/CatSneeze_toolkit/CatSneeze_toolkit/_ti_sdk/simplelink_cc13xx_cc26xx_sdk_8_32_00_07/kernel/nortos/lib/gcc/m4f/nortos_cc13x2x7.a(SwiP_nortos.c.obj)
 .rodata.g_Order_to_OpMode
                0x0000000000008718        0x4 /home/runner/work/CatSneeze_toolkit/CatSneeze_toolkit/_ti_sdk/simplelink_cc13xx_cc26xx_sdk_8_32_00_07/source/ti/devices/cc13x2x7_cc26x2x7/driverlib/bin/gcc/driverlib.lib(aux_sysif.c.obj)
 .rodata.g_OpMode_to_order
                0x000000000000871c        0x4 /home/runner/work/CatSneeze_toolkit/CatSneeze_toolkit/_ti_sdk/simplelink_cc13xx_cc26xx_sdk_8_32_00_07/source/ti/devices/cc13x2x7_cc26x2x7/driverlib/bin/gcc/driverlib.lib(aux_sysif.c.obj)
 .rodata.str1.4
                0x0000000000008720       0x13 /usr/lib/gcc/arm-none-eabi/10.3.1/../../../arm-none-eabi/lib/thumb/v7e-m+fp/hard/libc_nano.a(lib_a-nano-svfprintf.o)
 *fill*         0x0000000000008733        0x1 
 .rodata.str1.4
                0x0000000000008734       0x25 /usr/lib/gcc/arm-none-eabi/10.3.1/../../../arm-none-eabi/lib/thumb/v7e-m+fp/hard/libc_nano.a(lib_a-nano-vfprintf_i.o)
 *(.timestampPFormat)

.data           0x00000000200000d8      0x2ac load address 0x000000000000875c
                0x000000000000875c                __data_load__ = LOADADDR (.data)
                0x00000000200000d8                __data_start__ = .
                0x000000000000875c                _ldata = ABSOLUTE (__data_load__)
                0x00000000200000d8                _data = __data_start__
 *(.data)
 .data          0x00000000200000d8       0x64 /usr/lib/gcc/arm-none-eabi/10.3.1/../../../arm-none-eabi/lib/thumb/v7e-m+fp/hard/libc_nano.a(lib_a-impure.o)
                0x00000000200000d8                _impure_ptr
 *(.data.*)
 .data.g_state  0x000000002000013c        0x9 CMakeFiles/nrf24_sniffer.dir/nrf24_sniffer.c.obj
 *fill*         0x0000000020000145        0x3 
 .data.RF_nrf24_cmdPropRadioDivSetup_1M
                0x0000000020000148       0x30 CMakeFiles/nrf24_sniffer.dir/smartrf_settings.c.obj
                0x0000000020000148                RF_nrf24_cmdPropRadioDivSetup_1M
 .data.RF_nrf24_cmdPropRxAdv
                0x0000000020000178       0x30 CMakeFiles/nrf24_sniffer.dir/smartrf_settings.c.obj
                0x0000000020000178                RF_nrf24_cmdPropRxAdv
 .data.RF_nrf24_cmdPropTx
                0x00000000200001a8       0x18 CMakeFiles/nrf24_sniffer.dir/smartrf_settings.c.obj
                0x00000000200001a8                RF_nrf24_cmdPropTx
 .data.RF_prop  0x00000000200001c0       0x10 CMakeFiles/nrf24_sniffer.dir/smartrf_settings.c.obj
                0x00000000200001c0                RF_prop
 .data.pOverrides
                0x00000000200001d0       0x18 CMakeFiles/nrf24_sniffer.dir/smartrf_settings.c.obj
                0x00000000200001d0                pOverrides
 .data.RFCC26XX_schedulerPolicy
                0x00000000200001e8        0x8 /home/runner/work/CatSneeze_toolkit/CatSneeze_toolkit/_ti_sdk/simplelink_cc13xx_cc26xx_sdk_8_32_00_07/source/ti/drivers/rf/lib/gcc/m4f/rf_multiMode_cc13x2.a(RFCC26X2_multiMode.c.cc13x2.gcc.o)
                0x00000000200001e8                RFCC26XX_schedulerPolicy
 .data.PowerCC26X2_rtcSubSecInc
                0x00000000200001f0        0x4 /home/runner/work/CatSneeze_toolkit/CatSneeze_toolkit/_ti_sdk/simplelink_cc13xx_cc26xx_sdk_8_32_00_07/source/ti/drivers/lib/gcc/m4f/drivers_cc13x2x7.a(PowerCC26X2.c.obj)
 .data.PowerCC26X2_module
                0x00000000200001f4      0x174 /home/runner/work/CatSneeze_toolkit/CatSneeze_toolkit/_ti_sdk/simplelink_cc13xx_cc26xx_sdk_8_32_00_07/source/ti/drivers/lib/gcc/m4f/drivers_cc13x2x7.a(PowerCC26X2.c.obj)
                0x00000000200001f4                PowerCC26X2_module
 .data.SemaphoreP_defaultParams
                0x0000000020000368        0x8 /home/runner/work/CatSneeze_toolkit/CatSneeze_toolkit/_ti_sdk/simplelink_cc13xx_cc26xx_sdk_8_32_00_07/kernel/nortos/lib/gcc/m4f/nortos_cc13x2x7.a(SemaphoreP_nortos.c.obj)
                0x0000000020000368                SemaphoreP_defaultParams
 .data.ClockP_tickPeriod
                0x0000000020000370        0x4 /home/runner/work/CatSneeze_toolkit/CatSneeze_toolkit/_ti_sdk/simplelink_cc13xx_cc26xx_sdk_8_32_00_07/kernel/nortos/lib/gcc/m4f/nortos_cc13x2x7.a(ClockPTimer_nortos.c.obj)
                0x0000000020000370                ClockP_tickPeriod
 .data.HwiP_swiPIntNum
                0x0000000020000374        0x4 /home/runner/work/CatSneeze_toolkit/CatSneeze_toolkit/_ti_sdk/simplelink_cc13xx_cc26xx_sdk_8_32_00_07/kernel/nortos/lib/gcc/m4f/nortos_cc13x2x7.a(HwiPCC26XX_nortos.c.obj)
                0x0000000020000374                HwiP_swiPIntNum
 .data.TimerP_defaultParams
                0x0000000020000378        0xc /home/runner/work/CatSneeze_toolkit/CatSneeze_toolkit/_ti_sdk/simplelink_cc13xx_cc26xx_sdk_8_32_00_07/kernel/nortos/lib/gcc/m4f/nortos_cc13x2x7.a(TimerPCC26XX_nortos.c.obj)
                0x0000000020000384                . = ALIGN (0x4)
                0x0000000020000384                __data_end__ = .
                0x0000000020000384                _edata = __data_end__

.igot.plt       0x0000000020000384        0x0 load address 0x0000000000008a08
 .igot.plt      0x0000000020000384        0x0 CMakeFiles/nrf24_sniffer.dir/nrf24_sniffer.c.obj

.ARM.exidx      0x0000000000008a08        0x8
                0x0000000000008a08                __exidx_start = .
 *(.ARM.exidx* .gnu.linkonce.armexidx.*)
 .ARM.exidx     0x0000000000008a08        0x8 /usr/lib/gcc/arm-none-eabi/10.3.1/thumb/v7e-m+fp/hard/libgcc.a(_udivmoddi4.o)
                0x0000000000008a10                __exidx_end = .

.ARM.extab
 *(.ARM.extab* .gnu.linkonce.armextab.*)

.nvs
 *(.nvs)

.ccfg           0x00000000000affa8       0x58
 *(.ccfg)
 .ccfg          0x00000000000affa8       0x58 CMakeFiles/nrf24_sniffer.dir/home/runner/work/CatSneeze_toolkit/CatSneeze_toolkit/_ti_sdk/simplelink_cc13xx_cc26xx_sdk_8_32_00_07/source/ti/devices/cc13x2x7_cc26x2x7/startup_files/ccfg.c.obj
                0x00000000000affa8                __ccfg

.rel.dyn        0x00000000000b0000        0x0
 .rel.iplt      0x00000000000b0000        0x0 CMakeFiles/nrf24_sniffer.dir/nrf24_sniffer.c.obj

.bss            0x0000000020000388      0xabc
                0x0000000020000388                __bss_start__ = .
                0x0000000020000388                _bss = __bss_start__
 *(.shbss)
 *(.bss)
 .bss           0x0000000020000388        0x8 /usr/lib/gcc/arm-none-eabi/10.3.1/../../../arm-none-eabi/lib/thumb/v7e-m+fp/hard/libc_nano.a(lib_a-nano-mallocr.o)
                0x0000000020000388                __malloc_free_list
                0x000000002000038c                __malloc_sbrk_start
 .bss           0x0000000020000390        0x4 /usr/lib/gcc/arm-none-eabi/10.3.1/../../../arm-none-eabi/lib/thumb/v7e-m+fp/hard/libc_nano.a(lib_a-reent.o)
                0x0000000020000390                errno
 .bss           0x0000000020000394        0x4 /usr/lib/gcc/arm-none-eabi/10.3.1/../../../arm-none-eabi/lib/thumb/v7e-m+fp/hard/libnosys.a(sbrk.o)
 *(.bss.*)
 .bss.g_cmdBuf  0x0000000020000398       0x20 CMakeFiles/nrf24_sniffer.dir/nrf24_sniffer.c.obj
 .bss.g_cmdIdx  0x00000000200003b8        0x4 CMakeFiles/nrf24_sniffer.dir/nrf24_sniffer.c.obj
 .bss.g_cmdReady
                0x00000000200003bc        0x1 CMakeFiles/nrf24_sniffer.dir/nrf24_sniffer.c.obj
 *fill*         0x00000000200003bd        0x3 
 .bss.g_rfHandle
                0x00000000200003c0        0x4 CMakeFiles/nrf24_sniffer.dir/nrf24_sniffer.c.obj
 *fill*         0x00000000200003c4        0x4 
 .bss.g_rfObject
                0x00000000200003c8      0x100 CMakeFiles/nrf24_sniffer.dir/nrf24_sniffer.c.obj
 .bss.g_rxBuf   0x00000000200004c8       0x40 CMakeFiles/nrf24_sniffer.dir/nrf24_sniffer.c.obj
 .bss.g_rxChar  0x0000000020000508        0x1 CMakeFiles/nrf24_sniffer.dir/nrf24_sniffer.c.obj
 *fill*         0x0000000020000509        0x3 
 .bss.g_rxEntry
                0x000000002000050c        0xc CMakeFiles/nrf24_sniffer.dir/nrf24_sniffer.c.obj
 .bss.g_rxQueue
                0x0000000020000518        0x8 CMakeFiles/nrf24_sniffer.dir/nrf24_sniffer.c.obj
 .bss.g_txBuf   0x0000000020000520       0x2a CMakeFiles/nrf24_sniffer.dir/nrf24_sniffer.c.obj
 *fill*         0x000000002000054a        0x2 
 .bss.g_uart    0x000000002000054c        0x4 CMakeFiles/nrf24_sniffer.dir/nrf24_sniffer.c.obj
 .bss.rxStats.5
                0x0000000020000550        0xc CMakeFiles/nrf24_sniffer.dir/nrf24_sniffer.c.obj
 .bss.s_tx_pid.6
                0x000000002000055c        0x1 CMakeFiles/nrf24_sniffer.dir/nrf24_sniffer.c.obj
 *fill*         0x000000002000055d        0x3 
 .bss.uart2CC26X2Objects
                0x0000000020000560      0x170 CMakeFiles/nrf24_sniffer.dir/syscfg_pregenerated/ti_drivers_config.c.obj
                0x0000000020000560                uart2CC26X2Objects
 .bss.uart2RxBuf0
                0x00000000200006d0       0x20 CMakeFiles/nrf24_sniffer.dir/syscfg_pregenerated/ti_drivers_config.c.obj
 .bss.udmaCC26XXObjects
                0x00000000200006f0       0x20 CMakeFiles/nrf24_sniffer.dir/syscfg_pregenerated/ti_drivers_config.c.obj
                0x00000000200006f0                udmaCC26XXObjects
 .bss.lfClockSourceLast.0
                0x0000000020000710        0x4 /home/runner/work/CatSneeze_toolkit/CatSneeze_toolkit/_ti_sdk/simplelink_cc13xx_cc26xx_sdk_8_32_00_07/source/ti/drivers/rf/lib/gcc/m4f/rf_multiMode_cc13x2.a(RFCC26X2_multiMode.c.cc13x2.gcc.o)
 .bss.bDisableFlashInIdleConstraint
                0x0000000020000714        0x1 /home/runner/work/CatSneeze_toolkit/CatSneeze_toolkit/_ti_sdk/simplelink_cc13xx_cc26xx_sdk_8_32_00_07/source/ti/drivers/rf/lib/gcc/m4f/rf_multiMode_cc13x2.a(RFCC26X2_multiMode.c.cc13x2.gcc.o)
 *fill*         0x0000000020000715        0x3 
 .bss.pfnUpdateHposcOverride
                0x0000000020000718        0x4 /home/runner/work/CatSneeze_toolkit/CatSneeze_toolkit/_ti_sdk/simplelink_cc13xx_cc26xx_sdk_8_32_00_07/source/ti/drivers/rf/lib/gcc/m4f/rf_multiMode_cc13x2.a(RFCC26X2_multiMode.c.cc13x2.gcc.o)
 .bss.RF_numClients
                0x000000002000071c        0x1 /home/runner/work/CatSneeze_toolkit/CatSneeze_toolkit/_ti_sdk/simplelink_cc13xx_cc26xx_sdk_8_32_00_07/source/ti/drivers/rf/lib/gcc/m4f/rf_multiMode_cc13x2.a(RFCC26X2_multiMode.c.cc13x2.gcc.o)
 *fill*         0x000000002000071d        0x3 
 .bss.RF_errTolValInUs
                0x0000000020000720        0x4 /home/runner/work/CatSneeze_toolkit/CatSneeze_toolkit/_ti_sdk/simplelink_cc13xx_cc26xx_sdk_8_32_00_07/source/ti/drivers/rf/lib/gcc/m4f/rf_multiMode_cc13x2.a(RFCC26X2_multiMode.c.cc13x2.gcc.o)
 .bss.RF_rtcBeginSequence
                0x0000000020000724        0x4 /home/runner/work/CatSneeze_toolkit/CatSneeze_toolkit/_ti_sdk/simplelink_cc13xx_cc26xx_sdk_8_32_00_07/source/ti/drivers/rf/lib/gcc/m4f/rf_multiMode_cc13x2.a(RFCC26X2_multiMode.c.cc13x2.gcc.o)
 .bss.RF_rtcTimestampA
                0x0000000020000728        0x4 /home/runner/work/CatSneeze_toolkit/CatSneeze_toolkit/_ti_sdk/simplelink_cc13xx_cc26xx_sdk_8_32_00_07/source/ti/drivers/rf/lib/gcc/m4f/rf_multiMode_cc13x2.a(RFCC26X2_multiMode.c.cc13x2.gcc.o)
 .bss.RF_Sch    0x000000002000072c       0x28 /home/runner/work/CatSneeze_toolkit/CatSneeze_toolkit/_ti_sdk/simplelink_cc13xx_cc26xx_sdk_8_32_00_07/source/ti/drivers/rf/lib/gcc/m4f/rf_multiMode_cc13x2.a(RFCC26X2_multiMode.c.cc13x2.gcc.o)
 .bss.RF_ratSyncCmd
                0x0000000020000754       0x14 /home/runner/work/CatSneeze_toolkit/CatSneeze_toolkit/_ti_sdk/simplelink_cc13xx_cc26xx_sdk_8_32_00_07/source/ti/drivers/rf/lib/gcc/m4f/rf_multiMode_cc13x2.a(RFCC26X2_multiMode.c.cc13x2.gcc.o)
 .bss.RF_ratModule
                0x0000000020000768       0x68 /home/runner/work/CatSneeze_toolkit/CatSneeze_toolkit/_ti_sdk/simplelink_cc13xx_cc26xx_sdk_8_32_00_07/source/ti/drivers/rf/lib/gcc/m4f/rf_multiMode_cc13x2.a(RFCC26X2_multiMode.c.cc13x2.gcc.o)
 .bss.RF_core   0x00000000200007d0       0x10 /home/runner/work/CatSneeze_toolkit/CatSneeze_toolkit/_ti_sdk/simplelink_cc13xx_cc26xx_sdk_8_32_00_07/source/ti/drivers/rf/lib/gcc/m4f/rf_multiMode_cc13x2.a(RFCC26X2_multiMode.c.cc13x2.gcc.o)
 .bss.RF_currClient
                0x00000000200007e0        0x4 /home/runner/work/CatSneeze_toolkit/CatSneeze_toolkit/_ti_sdk/simplelink_cc13xx_cc26xx_sdk_8_32_00_07/source/ti/drivers/rf/lib/gcc/m4f/rf_multiMode_cc13x2.a(RFCC26X2_multiMode.c.cc13x2.gcc.o)
 .bss.RF_powerConstraint
                0x00000000200007e4        0x1 /home/runner/work/CatSneeze_toolkit/CatSneeze_toolkit/_ti_sdk/simplelink_cc13xx_cc26xx_sdk_8_32_00_07/source/ti/drivers/rf/lib/gcc/m4f/rf_multiMode_cc13x2.a(RFCC26X2_multiMode.c.cc13x2.gcc.o)
 *fill*         0x00000000200007e5        0x3 
 .bss.RF_wakeupNotifyObj
                0x00000000200007e8       0x14 /home/runner/work/CatSneeze_toolkit/CatSneeze_toolkit/_ti_sdk/simplelink_cc13xx_cc26xx_sdk_8_32_00_07/source/ti/drivers/rf/lib/gcc/m4f/rf_multiMode_cc13x2.a(RFCC26X2_multiMode.c.cc13x2.gcc.o)
 .bss.RF_cmdQ   0x00000000200007fc       0x20 /home/runner/work/CatSneeze_toolkit/CatSneeze_toolkit/_ti_sdk/simplelink_cc13xx_cc26xx_sdk_8_32_00_07/source/ti/drivers/rf/lib/gcc/m4f/rf_multiMode_cc13x2.a(RFCC26X2_multiMode.c.cc13x2.gcc.o)
 *fill*         0x000000002000081c        0x4 
 .bss.RF_cmdPool
                0x0000000020000820      0x2c0 /home/runner/work/CatSneeze_toolkit/CatSneeze_toolkit/_ti_sdk/simplelink_cc13xx_cc26xx_sdk_8_32_00_07/source/ti/drivers/rf/lib/gcc/m4f/rf_multiMode_cc13x2.a(RFCC26X2_multiMode.c.cc13x2.gcc.o)
 .bss.RF_clkInactivityObj
                0x0000000020000ae0       0x44 /home/runner/work/CatSneeze_toolkit/CatSneeze_toolkit/_ti_sdk/simplelink_cc13xx_cc26xx_sdk_8_32_00_07/source/ti/drivers/rf/lib/gcc/m4f/rf_multiMode_cc13x2.a(RFCC26X2_multiMode.c.cc13x2.gcc.o)
 .bss.RF_clkPowerUpObj
                0x0000000020000b24       0x44 /home/runner/work/CatSneeze_toolkit/CatSneeze_toolkit/_ti_sdk/simplelink_cc13xx_cc26xx_sdk_8_32_00_07/source/ti/drivers/rf/lib/gcc/m4f/rf_multiMode_cc13x2.a(RFCC26X2_multiMode.c.cc13x2.gcc.o)
 .bss.RF_hwiHwObj
                0x0000000020000b68       0x1c /home/runner/work/CatSneeze_toolkit/CatSneeze_toolkit/_ti_sdk/simplelink_cc13xx_cc26xx_sdk_8_32_00_07/source/ti/drivers/rf/lib/gcc/m4f/rf_multiMode_cc13x2.a(RFCC26X2_multiMode.c.cc13x2.gcc.o)
 .bss.RF_swiHwObj
                0x0000000020000b84       0x3c /home/runner/work/CatSneeze_toolkit/CatSneeze_toolkit/_ti_sdk/simplelink_cc13xx_cc26xx_sdk_8_32_00_07/source/ti/drivers/rf/lib/gcc/m4f/rf_multiMode_cc13x2.a(RFCC26X2_multiMode.c.cc13x2.gcc.o)
 .bss.RF_hwiCpe0Obj
                0x0000000020000bc0       0x1c /home/runner/work/CatSneeze_toolkit/CatSneeze_toolkit/_ti_sdk/simplelink_cc13xx_cc26xx_sdk_8_32_00_07/source/ti/drivers/rf/lib/gcc/m4f/rf_multiMode_cc13x2.a(RFCC26X2_multiMode.c.cc13x2.gcc.o)
 .bss.RF_swiFsmObj
                0x0000000020000bdc       0x3c /home/runner/work/CatSneeze_toolkit/CatSneeze_toolkit/_ti_sdk/simplelink_cc13xx_cc26xx_sdk_8_32_00_07/source/ti/drivers/rf/lib/gcc/m4f/rf_multiMode_cc13x2.a(RFCC26X2_multiMode.c.cc13x2.gcc.o)
 .bss.bPropPatchEntered
                0x0000000020000c18        0x1 /home/runner/work/CatSneeze_toolkit/CatSneeze_toolkit/_ti_sdk/simplelink_cc13xx_cc26xx_sdk_8_32_00_07/source/ti/drivers/rf/lib/gcc/m4f/rf_multiMode_cc13x2.a(rf_patch_cpe_prop.c.cc13x2.gcc.o)
 .bss.SemaphoreP_initialized
                0x0000000020000c19        0x1 /home/runner/work/CatSneeze_toolkit/CatSneeze_toolkit/_ti_sdk/simplelink_cc13xx_cc26xx_sdk_8_32_00_07/kernel/nortos/lib/gcc/m4f/nortos_cc13x2x7.a(SemaphoreP_nortos.c.obj)
 .bss.doEnablePolicy
                0x0000000020000c1a        0x1 /home/runner/work/CatSneeze_toolkit/CatSneeze_toolkit/_ti_sdk/simplelink_cc13xx_cc26xx_sdk_8_32_00_07/kernel/nortos/lib/gcc/m4f/nortos_cc13x2x7.a(SemaphoreP_nortos.c.obj)
 .bss.pendInProgress
                0x0000000020000c1b        0x1 /home/runner/work/CatSneeze_toolkit/CatSneeze_toolkit/_ti_sdk/simplelink_cc13xx_cc26xx_sdk_8_32_00_07/kernel/nortos/lib/gcc/m4f/nortos_cc13x2x7.a(SemaphoreP_nortos.c.obj)
 .bss.SwiP_readyList
                0x0000000020000c1c       0x20 /home/runner/work/CatSneeze_toolkit/CatSneeze_toolkit/_ti_sdk/simplelink_cc13xx_cc26xx_sdk_8_32_00_07/kernel/nortos/lib/gcc/m4f/nortos_cc13x2x7.a(SwiP_nortos.c.obj)
 .bss.SwiP_hwiStruct
                0x0000000020000c3c       0x1c /home/runner/work/CatSneeze_toolkit/CatSneeze_toolkit/_ti_sdk/simplelink_cc13xx_cc26xx_sdk_8_32_00_07/kernel/nortos/lib/gcc/m4f/nortos_cc13x2x7.a(SwiP_nortos.c.obj)
 .bss.SwiP_initialized
                0x0000000020000c58        0x1 /home/runner/work/CatSneeze_toolkit/CatSneeze_toolkit/_ti_sdk/simplelink_cc13xx_cc26xx_sdk_8_32_00_07/kernel/nortos/lib/gcc/m4f/nortos_cc13x2x7.a(SwiP_nortos.c.obj)
 .bss.SwiP_schedulerRunning
                0x0000000020000c59        0x1 /home/runner/work/CatSneeze_toolkit/CatSneeze_toolkit/_ti_sdk/simplelink_cc13xx_cc26xx_sdk_8_32_00_07/kernel/nortos/lib/gcc/m4f/nortos_cc13x2x7.a(SwiP_nortos.c.obj)
 *fill*         0x0000000020000c5a        0x2 
 .bss.SwiP_currentTrigger
                0x0000000020000c5c        0x4 /home/runner/work/CatSneeze_toolkit/CatSneeze_toolkit/_ti_sdk/simplelink_cc13xx_cc26xx_sdk_8_32_00_07/kernel/nortos/lib/gcc/m4f/nortos_cc13x2x7.a(SwiP_nortos.c.obj)
 .bss.SwiP_lockState
                0x0000000020000c60        0x4 /home/runner/work/CatSneeze_toolkit/CatSneeze_toolkit/_ti_sdk/simplelink_cc13xx_cc26xx_sdk_8_32_00_07/kernel/nortos/lib/gcc/m4f/nortos_cc13x2x7.a(SwiP_nortos.c.obj)
 .bss.SwiP_readyMask
                0x0000000020000c64        0x4 /home/runner/work/CatSneeze_toolkit/CatSneeze_toolkit/_ti_sdk/simplelink_cc13xx_cc26xx_sdk_8_32_00_07/kernel/nortos/lib/gcc/m4f/nortos_cc13x2x7.a(SwiP_nortos.c.obj)
 .bss.ClockP_defaultParams
                0x0000000020000c68        0xc /home/runner/work/CatSneeze_toolkit/CatSneeze_toolkit/_ti_sdk/simplelink_cc13xx_cc26xx_sdk_8_32_00_07/kernel/nortos/lib/gcc/m4f/nortos_cc13x2x7.a(ClockPTimer_nortos.c.obj)
 .bss.ClockP_initialized
                0x0000000020000c74        0x1 /home/runner/work/CatSneeze_toolkit/CatSneeze_toolkit/_ti_sdk/simplelink_cc13xx_cc26xx_sdk_8_32_00_07/kernel/nortos/lib/gcc/m4f/nortos_cc13x2x7.a(ClockPTimer_nortos.c.obj)
 *fill*         0x0000000020000c75        0x3 
 .bss.ClockP_module
                0x0000000020000c78       0xa8 /home/runner/work/CatSneeze_toolkit/CatSneeze_toolkit/_ti_sdk/simplelink_cc13xx_cc26xx_sdk_8_32_00_07/kernel/nortos/lib/gcc/m4f/nortos_cc13x2x7.a(ClockPTimer_nortos.c.obj)
 .bss.HwiP_dispatchTable
                0x0000000020000d20       0xd8 /home/runner/work/CatSneeze_toolkit/CatSneeze_toolkit/_ti_sdk/simplelink_cc13xx_cc26xx_sdk_8_32_00_07/kernel/nortos/lib/gcc/m4f/nortos_cc13x2x7.a(HwiPCC26XX_nortos.c.obj)
 .bss.PowerCC26X2_swiKey
                0x0000000020000df8        0x4 /home/runner/work/CatSneeze_toolkit/CatSneeze_toolkit/_ti_sdk/simplelink_cc13xx_cc26xx_sdk_8_32_00_07/kernel/nortos/lib/gcc/m4f/nortos_cc13x2x7.a(PowerCC26X2_nortos.c.obj)
 .bss.TimerP_hwiStruct
                0x0000000020000dfc       0x1c /home/runner/work/CatSneeze_toolkit/CatSneeze_toolkit/_ti_sdk/simplelink_cc13xx_cc26xx_sdk_8_32_00_07/kernel/nortos/lib/gcc/m4f/nortos_cc13x2x7.a(TimerPCC26XX_nortos.c.obj)
 .bss.TimerP_handle
                0x0000000020000e18        0x4 /home/runner/work/CatSneeze_toolkit/CatSneeze_toolkit/_ti_sdk/simplelink_cc13xx_cc26xx_sdk_8_32_00_07/kernel/nortos/lib/gcc/m4f/nortos_cc13x2x7.a(TimerPCC26XX_nortos.c.obj)
 .bss.TimerP_initialized
                0x0000000020000e1c        0x1 /home/runner/work/CatSneeze_toolkit/CatSneeze_toolkit/_ti_sdk/simplelink_cc13xx_cc26xx_sdk_8_32_00_07/kernel/nortos/lib/gcc/m4f/nortos_cc13x2x7.a(TimerPCC26XX_nortos.c.obj)
 *fill*         0x0000000020000e1d        0x3 
 .bss._hposcCoeffs
                0x0000000020000e20       0x10 /home/runner/work/CatSneeze_toolkit/CatSneeze_toolkit/_ti_sdk/simplelink_cc13xx_cc26xx_sdk_8_32_00_07/source/ti/devices/cc13x2x7_cc26x2x7/driverlib/bin/gcc/driverlib.lib(osc.c.obj)
                0x0000000020000e20                _hposcCoeffs
 .bss.oscHfGlobals
                0x0000000020000e30       0x14 /home/runner/work/CatSneeze_toolkit/CatSneeze_toolkit/_ti_sdk/simplelink_cc13xx_cc26xx_sdk_8_32_00_07/source/ti/devices/cc13x2x7_cc26x2x7/driverlib/bin/gcc/driverlib.lib(osc.c.obj)
 *(COMMON)
                0x0000000020000e44                . = ALIGN (0x4)
                0x0000000020000e44                __bss_end__ = .
                0x0000000020000e44                _ebss = __bss_end__

.heap           0x0000000020000e44     0x4000
                0x0000000020000e44                __heap_start__ = .
                0x0000000020000e44                end = __heap_start__
                0x0000000020000e44                _end = end
                0x0000000020000e44                __end = end
                0x0000000020004e44                . = (. + HEAPSIZE)
 *fill*         0x0000000020000e44     0x4000 
 *(.heap)
                0x0000000020004e44                __heap_end__ = .
                0x0000000020004e44                __HeapLimit = __heap_end__

.stack          0x0000000020004e48      0x400
                0x0000000020004e48                _stack = .
                0x0000000020004e48                __stack = .
 *(.stack)
                0x0000000020005248                . = (. + STACKSIZE)
 *fill*         0x0000000020004e48      0x400 
                0x0000000020005248                _stack_end = .
                0x0000000020005248                __stack_end = .
                0x0000000020005248                _estack = __stack_end

.log_data
 *(.log_data)

.log_ptr
 *(.log_ptr*)
OUTPUT(nrf24_sniffer elf32-littlearm)
LOAD linker stubs

.comment        0x0000000000000000       0x78
 .comment       0x0000000000000000       0x33 CMakeFiles/nrf24_sniffer.dir/nrf24_sniffer.c.obj
                                         0x34 (size before relaxing)
 .comment       0x0000000000000033       0x34 CMakeFiles/nrf24_sniffer.dir/smartrf_settings.c.obj
 .comment       0x0000000000000033       0x34 CMakeFiles/nrf24_sniffer.dir/home/runner/work/CatSneeze_toolkit/CatSneeze_toolkit/_ti_sdk/simplelink_cc13xx_cc26xx_sdk_8_32_00_07/source/ti/devices/cc13x2x7_cc26x2x7/startup_files/startup_gcc.c.obj
 .comment       0x0000000000000033       0x34 CMakeFiles/nrf24_sniffer.dir/home/runner/work/CatSneeze_toolkit/CatSneeze_toolkit/_ti_sdk/simplelink_cc13xx_cc26xx_sdk_8_32_00_07/source/ti/devices/cc13x2x7_cc26x2x7/startup_files/ccfg.c.obj
 .comment       0x0000000000000033       0x34 CMakeFiles/nrf24_sniffer.dir/syscfg_pregenerated/ti_drivers_config.c.obj
 .comment       0x0000000000000033       0x45 /home/runner/work/CatSneeze_toolkit/CatSneeze_toolkit/_ti_sdk/simplelink_cc13xx_cc26xx_sdk_8_32_00_07/source/ti/drivers/rf/lib/gcc/m4f/rf_multiMode_cc13x2.a(RFCC26X2_multiMode.c.cc13x2.gcc.o)
                                         0x46 (size before relaxing)
 .comment       0x0000000000000078       0x46 /home/runner/work/CatSneeze_toolkit/CatSneeze_toolkit/_ti_sdk/simplelink_cc13xx_cc26xx_sdk_8_32_00_07/source/ti/drivers/rf/lib/gcc/m4f/rf_multiMode_cc13x2.a(rfc.c.cc13x2.gcc.o)
 .comment       0x0000000000000078       0x46 /home/runner/work/CatSneeze_toolkit/CatSneeze_toolkit/_ti_sdk/simplelink_cc13xx_cc26xx_sdk_8_32_00_07/source/ti/drivers/rf/lib/gcc/m4f/rf_multiMode_cc13x2.a(rf_patch_cpe_prop.c.cc13x2.gcc.o)
 .comment       0x0000000000000078       0x46 /home/runner/work/CatSneeze_toolkit/CatSneeze_toolkit/_ti_sdk/simplelink_cc13xx_cc26xx_sdk_8_32_00_07/source/ti/drivers/lib/gcc/m4f/drivers_cc13x2x7.a(List.c.obj)
 .comment       0x0000000000000078       0x46 /home/runner/work/CatSneeze_toolkit/CatSneeze_toolkit/_ti_sdk/simplelink_cc13xx_cc26xx_sdk_8_32_00_07/source/ti/drivers/lib/gcc/m4f/drivers_cc13x2x7.a(PowerCC26X2.c.obj)
 .comment       0x0000000000000078       0x46 /home/runner/work/CatSneeze_toolkit/CatSneeze_toolkit/_ti_sdk/simplelink_cc13xx_cc26xx_sdk_8_32_00_07/source/ti/drivers/lib/gcc/m4f/drivers_cc13x2x7.a(PowerCC26X2_calibrateRCOSC.c.obj)
 .comment       0x0000000000000078       0x46 /home/runner/work/CatSneeze_toolkit/CatSneeze_toolkit/_ti_sdk/simplelink_cc13xx_cc26xx_sdk_8_32_00_07/source/ti/drivers/lib/gcc/m4f/drivers_cc13x2x7.a(UART2.c.obj)
 .comment       0x0000000000000078       0x46 /home/runner/work/CatSneeze_toolkit/CatSneeze_toolkit/_ti_sdk/simplelink_cc13xx_cc26xx_sdk_8_32_00_07/source/ti/drivers/lib/gcc/m4f/drivers_cc13x2x7.a(UART2CC26X2.c.obj)
 .comment       0x0000000000000078       0x46 /home/runner/work/CatSneeze_toolkit/CatSneeze_toolkit/_ti_sdk/simplelink_cc13xx_cc26xx_sdk_8_32_00_07/source/ti/drivers/lib/gcc/m4f/drivers_cc13x2x7.a(PowerCC26X2_calibrateRCOSC_helpers.c.obj)
 .comment       0x0000000000000078       0x46 /home/runner/work/CatSneeze_toolkit/CatSneeze_toolkit/_ti_sdk/simplelink_cc13xx_cc26xx_sdk_8_32_00_07/source/ti/drivers/lib/gcc/m4f/drivers_cc13x2x7.a(PowerCC26X2_helpers.c.obj)
 .comment       0x0000000000000078       0x46 /home/runner/work/CatSneeze_toolkit/CatSneeze_toolkit/_ti_sdk/simplelink_cc13xx_cc26xx_sdk_8_32_00_07/source/ti/drivers/lib/gcc/m4f/drivers_cc13x2x7.a(RingBuf.c.obj)
 .comment       0x0000000000000078       0x46 /home/runner/work/CatSneeze_toolkit/CatSneeze_toolkit/_ti_sdk/simplelink_cc13xx_cc26xx_sdk_8_32_00_07/source/ti/drivers/lib/gcc/m4f/drivers_cc13x2x7.a(UDMACC26XX.c.obj)
 .comment       0x0000000000000078       0x46 /home/runner/work/CatSneeze_toolkit/CatSneeze_toolkit/_ti_sdk/simplelink_cc13xx_cc26xx_sdk_8_32_00_07/source/ti/drivers/lib/gcc/m4f/drivers_cc13x2x7.a(GPIOCC26XX.c.obj)
 .comment       0x0000000000000078       0x46 /home/runner/work/CatSneeze_toolkit/CatSneeze_toolkit/_ti_sdk/simplelink_cc13xx_cc26xx_sdk_8_32_00_07/kernel/nortos/lib/gcc/m4f/nortos_cc13x2x7.a(NoRTOS.c.obj)
 .comment       0x0000000000000078       0x46 /home/runner/work/CatSneeze_toolkit/CatSneeze_toolkit/_ti_sdk/simplelink_cc13xx_cc26xx_sdk_8_32_00_07/kernel/nortos/lib/gcc/m4f/nortos_cc13x2x7.a(SemaphoreP_nortos.c.obj)
 .comment       0x0000000000000078       0x46 /home/runner/work/CatSneeze_toolkit/CatSneeze_toolkit/_ti_sdk/simplelink_cc13xx_cc26xx_sdk_8_32_00_07/kernel/nortos/lib/gcc/m4f/nortos_cc13x2x7.a(SwiP_nortos.c.obj)
 .comment       0x0000000000000078       0x46 /home/runner/work/CatSneeze_toolkit/CatSneeze_toolkit/_ti_sdk/simplelink_cc13xx_cc26xx_sdk_8_32_00_07/kernel/nortos/lib/gcc/m4f/nortos_cc13x2x7.a(ClockPTimer_nortos.c.obj)
 .comment       0x0000000000000078       0x46 /home/runner/work/CatSneeze_toolkit/CatSneeze_toolkit/_ti_sdk/simplelink_cc13xx_cc26xx_sdk_8_32_00_07/kernel/nortos/lib/gcc/m4f/nortos_cc13x2x7.a(QueueP_nortos.c.obj)
 .comment       0x0000000000000078       0x46 /home/runner/work/CatSneeze_toolkit/CatSneeze_toolkit/_ti_sdk/simplelink_cc13xx_cc26xx_sdk_8_32_00_07/kernel/nortos/lib/gcc/m4f/nortos_cc13x2x7.a(HwiPCC26XX_nortos.c.obj)
 .comment       0x0000000000000078       0x46 /home/runner/work/CatSneeze_toolkit/CatSneeze_toolkit/_ti_sdk/simplelink_cc13xx_cc26xx_sdk_8_32_00_07/kernel/nortos/lib/gcc/m4f/nortos_cc13x2x7.a(PowerCC26X2_nortos.c.obj)
 .comment       0x0000000000000078       0x46 /home/runner/work/CatSneeze_toolkit/CatSneeze_toolkit/_ti_sdk/simplelink_cc13xx_cc26xx_sdk_8_32_00_07/kernel/nortos/lib/gcc/m4f/nortos_cc13x2x7.a(TimerPCC26XX_nortos.c.obj)
 .comment       0x0000000000000078       0x46 /home/runner/work/CatSneeze_toolkit/CatSneeze_toolkit/_ti_sdk/simplelink_cc13xx_cc26xx_sdk_8_32_00_07/source/ti/devices/cc13x2x7_cc26x2x7/driverlib/bin/gcc/driverlib.lib(chipinfo.c.obj)
 .comment       0x0000000000000078       0x46 /home/runner/work/CatSneeze_toolkit/CatSneeze_toolkit/_ti_sdk/simplelink_cc13xx_cc26xx_sdk_8_32_00_07/source/ti/devices/cc13x2x7_cc26x2x7/driverlib/bin/gcc/driverlib.lib(cpu.c.obj)
 .comment       0x0000000000000078       0x46 /home/runner/work/CatSneeze_toolkit/CatSneeze_toolkit/_ti_sdk/simplelink_cc13xx_cc26xx_sdk_8_32_00_07/source/ti/devices/cc13x2x7_cc26x2x7/driverlib/bin/gcc/driverlib.lib(interrupt.c.obj)
 .comment       0x0000000000000078       0x46 /home/runner/work/CatSneeze_toolkit/CatSneeze_toolkit/_ti_sdk/simplelink_cc13xx_cc26xx_sdk_8_32_00_07/source/ti/devices/cc13x2x7_cc26x2x7/driverlib/bin/gcc/driverlib.lib(osc.c.obj)
 .comment       0x0000000000000078       0x46 /home/runner/work/CatSneeze_toolkit/CatSneeze_toolkit/_ti_sdk/simplelink_cc13xx_cc26xx_sdk_8_32_00_07/source/ti/devices/cc13x2x7_cc26x2x7/driverlib/bin/gcc/driverlib.lib(prcm.c.obj)
 .comment       0x0000000000000078       0x46 /home/runner/work/CatSneeze_toolkit/CatSneeze_toolkit/_ti_sdk/simplelink_cc13xx_cc26xx_sdk_8_32_00_07/source/ti/devices/cc13x2x7_cc26x2x7/driverlib/bin/gcc/driverlib.lib(setup.c.obj)
 .comment       0x0000000000000078       0x46 /home/runner/work/CatSneeze_toolkit/CatSneeze_toolkit/_ti_sdk/simplelink_cc13xx_cc26xx_sdk_8_32_00_07/source/ti/devices/cc13x2x7_cc26x2x7/driverlib/bin/gcc/driverlib.lib(sys_ctrl.c.obj)
 .comment       0x0000000000000078       0x46 /home/runner/work/CatSneeze_toolkit/CatSneeze_toolkit/_ti_sdk/simplelink_cc13xx_cc26xx_sdk_8_32_00_07/source/ti/devices/cc13x2x7_cc26x2x7/driverlib/bin/gcc/driverlib.lib(aux_sysif.c.obj)
 .comment       0x0000000000000078       0x34 /usr/lib/gcc/arm-none-eabi/10.3.1/thumb/v7e-m+fp/hard/libgcc.a(_udivmoddi4.o)
 .comment       0x0000000000000078       0x34 /usr/lib/gcc/arm-none-eabi/10.3.1/../../../arm-none-eabi/lib/thumb/v7e-m+fp/hard/libc_nano.a(lib_a-atoi.o)
 .comment       0x0000000000000078       0x34 /usr/lib/gcc/arm-none-eabi/10.3.1/../../../arm-none-eabi/lib/thumb/v7e-m+fp/hard/libc_nano.a(lib_a-ctype_.o)
 .comment       0x0000000000000078       0x34 /usr/lib/gcc/arm-none-eabi/10.3.1/../../../arm-none-eabi/lib/thumb/v7e-m+fp/hard/libc_nano.a(lib_a-memset.o)
 .comment       0x0000000000000078       0x34 /usr/lib/gcc/arm-none-eabi/10.3.1/../../../arm-none-eabi/lib/thumb/v7e-m+fp/hard/libc_nano.a(lib_a-nano-freer.o)
 .comment       0x0000000000000078       0x34 /usr/lib/gcc/arm-none-eabi/10.3.1/../../../arm-none-eabi/lib/thumb/v7e-m+fp/hard/libc_nano.a(lib_a-nano-mallocr.o)
 .comment       0x0000000000000078       0x34 /usr/lib/gcc/arm-none-eabi/10.3.1/../../../arm-none-eabi/lib/thumb/v7e-m+fp/hard/libc_nano.a(lib_a-sbrkr.o)
 .comment       0x0000000000000078       0x34 /usr/lib/gcc/arm-none-eabi/10.3.1/../../../arm-none-eabi/lib/thumb/v7e-m+fp/hard/libc_nano.a(lib_a-strchr.o)
 .comment       0x0000000000000078       0x34 /usr/lib/gcc/arm-none-eabi/10.3.1/../../../arm-none-eabi/lib/thumb/v7e-m+fp/hard/libc_nano.a(lib_a-strncmp.o)
 .comment       0x0000000000000078       0x34 /usr/lib/gcc/arm-none-eabi/10.3.1/../../../arm-none-eabi/lib/thumb/v7e-m+fp/hard/libc_nano.a(lib_a-strtol.o)
 .comment       0x0000000000000078       0x34 /usr/lib/gcc/arm-none-eabi/10.3.1/../../../arm-none-eabi/lib/thumb/v7e-m+fp/hard/libc_nano.a(lib_a-vsnprintf.o)
 .comment       0x0000000000000078       0x34 /usr/lib/gcc/arm-none-eabi/10.3.1/../../../arm-none-eabi/lib/thumb/v7e-m+fp/hard/libc_nano.a(lib_a-errno.o)
 .comment       0x0000000000000078       0x34 /usr/lib/gcc/arm-none-eabi/10.3.1/../../../arm-none-eabi/lib/thumb/v7e-m+fp/hard/libc_nano.a(lib_a-impure.o)
 .comment       0x0000000000000078       0x34 /usr/lib/gcc/arm-none-eabi/10.3.1/../../../arm-none-eabi/lib/thumb/v7e-m+fp/hard/libc_nano.a(lib_a-mlock.o)
 .comment       0x0000000000000078       0x34 /usr/lib/gcc/arm-none-eabi/10.3.1/../../../arm-none-eabi/lib/thumb/v7e-m+fp/hard/libc_nano.a(lib_a-nano-svfprintf.o)
 .comment       0x0000000000000078       0x34 /usr/lib/gcc/arm-none-eabi/10.3.1/../../../arm-none-eabi/lib/thumb/v7e-m+fp/hard/libc_nano.a(lib_a-nano-vfprintf_i.o)
 .comment       0x0000000000000078       0x34 /usr/lib/gcc/arm-none-eabi/10.3.1/../../../arm-none-eabi/lib/thumb/v7e-m+fp/hard/libc_nano.a(lib_a-reent.o)
 .comment       0x0000000000000078       0x34 /usr/lib/gcc/arm-none-eabi/10.3.1/../../../arm-none-eabi/lib/thumb/v7e-m+fp/hard/libc_nano.a(lib_a-memmove.o)
 .comment       0x0000000000000078       0x34 /usr/lib/gcc/arm-none-eabi/10.3.1/../../../arm-none-eabi/lib/thumb/v7e-m+fp/hard/libc_nano.a(lib_a-nano-reallocr.o)
 .comment       0x0000000000000078       0x34 /usr/lib/gcc/arm-none-eabi/10.3.1/../../../arm-none-eabi/lib/thumb/v7e-m+fp/hard/libc_nano.a(lib_a-nano-msizer.o)
 .comment       0x0000000000000078       0x34 /usr/lib/gcc/arm-none-eabi/10.3.1/../../../arm-none-eabi/lib/thumb/v7e-m+fp/hard/libnosys.a(sbrk.o)

.ARM.attributes
                0x0000000000000000       0x32
 .ARM.attributes
                0x0000000000000000       0x34 CMakeFiles/nrf24_sniffer.dir/nrf24_sniffer.c.obj
 .ARM.attributes
                0x0000000000000034       0x39 CMakeFiles/nrf24_sniffer.dir/smartrf_settings.c.obj
 .ARM.attributes
                0x000000000000006d       0x34 CMakeFiles/nrf24_sniffer.dir/home/runner/work/CatSneeze_toolkit/CatSneeze_toolkit/_ti_sdk/simplelink_cc13xx_cc26xx_sdk_8_32_00_07/source/ti/devices/cc13x2x7_cc26x2x7/startup_files/startup_gcc.c.obj
 .ARM.attributes
                0x00000000000000a1       0x39 CMakeFiles/nrf24_sniffer.dir/home/runner/work/CatSneeze_toolkit/CatSneeze_toolkit/_ti_sdk/simplelink_cc13xx_cc26xx_sdk_8_32_00_07/source/ti/devices/cc13x2x7_cc26x2x7/startup_files/ccfg.c.obj
 .ARM.attributes
                0x00000000000000da       0x34 CMakeFiles/nrf24_sniffer.dir/syscfg_pregenerated/ti_drivers_config.c.obj
 .ARM.attributes
                0x000000000000010e       0x34 /home/runner/work/CatSneeze_toolkit/CatSneeze_toolkit/_ti_sdk/simplelink_cc13xx_cc26xx_sdk_8_32_00_07/source/ti/drivers/rf/lib/gcc/m4f/rf_multiMode_cc13x2.a(RFCC26X2_multiMode.c.cc13x2.gcc.o)
 .ARM.attributes
                0x0000000000000142       0x34 /home/runner/work/CatSneeze_toolkit/CatSneeze_toolkit/_ti_sdk/simplelink_cc13xx_cc26xx_sdk_8_32_00_07/source/ti/drivers/rf/lib/gcc/m4f/rf_multiMode_cc13x2.a(rfc.c.cc13x2.gcc.o)
 .ARM.attributes
                0x0000000000000176       0x34 /home/runner/work/CatSneeze_toolkit/CatSneeze_toolkit/_ti_sdk/simplelink_cc13xx_cc26xx_sdk_8_32_00_07/source/ti/drivers/rf/lib/gcc/m4f/rf_multiMode_cc13x2.a(rf_patch_cpe_prop.c.cc13x2.gcc.o)
 .ARM.attributes
                0x00000000000001aa       0x34 /home/runner/work/CatSneeze_toolkit/CatSneeze_toolkit/_ti_sdk/simplelink_cc13xx_cc26xx_sdk_8_32_00_07/source/ti/drivers/lib/gcc/m4f/drivers_cc13x2x7.a(List.c.obj)
 .ARM.attributes
                0x00000000000001de       0x34 /home/runner/work/CatSneeze_toolkit/CatSneeze_toolkit/_ti_sdk/simplelink_cc13xx_cc26xx_sdk_8_32_00_07/source/ti/drivers/lib/gcc/m4f/drivers_cc13x2x7.a(PowerCC26X2.c.obj)
 .ARM.attributes
                0x0000000000000212       0x34 /home/runner/work/CatSneeze_toolkit/CatSneeze_toolkit/_ti_sdk/simplelink_cc13xx_cc26xx_sdk_8_32_00_07/source/ti/drivers/lib/gcc/m4f/drivers_cc13x2x7.a(PowerCC26X2_calibrateRCOSC.c.obj)
 .ARM.attributes
                0x0000000000000246       0x34 /home/runner/work/CatSneeze_toolkit/CatSneeze_toolkit/_ti_sdk/simplelink_cc13xx_cc26xx_sdk_8_32_00_07/source/ti/drivers/lib/gcc/m4f/drivers_cc13x2x7.a(UART2.c.obj)
 .ARM.attributes
                0x000000000000027a       0x34 /home/runner/work/CatSneeze_toolkit/CatSneeze_toolkit/_ti_sdk/simplelink_cc13xx_cc26xx_sdk_8_32_00_07/source/ti/drivers/lib/gcc/m4f/drivers_cc13x2x7.a(UART2CC26X2.c.obj)
 .ARM.attributes
                0x00000000000002ae       0x34 /home/runner/work/CatSneeze_toolkit/CatSneeze_toolkit/_ti_sdk/simplelink_cc13xx_cc26xx_sdk_8_32_00_07/source/ti/drivers/lib/gcc/m4f/drivers_cc13x2x7.a(PowerCC26X2_calibrateRCOSC_helpers.c.obj)
 .ARM.attributes
                0x00000000000002e2       0x34 /home/runner/work/CatSneeze_toolkit/CatSneeze_toolkit/_ti_sdk/simplelink_cc13xx_cc26xx_sdk_8_32_00_07/source/ti/drivers/lib/gcc/m4f/drivers_cc13x2x7.a(PowerCC26X2_helpers.c.obj)
 .ARM.attributes
                0x0000000000000316       0x34 /home/runner/work/CatSneeze_toolkit/CatSneeze_toolkit/_ti_sdk/simplelink_cc13xx_cc26xx_sdk_8_32_00_07/source/ti/drivers/lib/gcc/m4f/drivers_cc13x2x7.a(RingBuf.c.obj)
 .ARM.attributes
                0x000000000000034a       0x34 /home/runner/work/CatSneeze_toolkit/CatSneeze_toolkit/_ti_sdk/simplelink_cc13xx_cc26xx_sdk_8_32_00_07/source/ti/drivers/lib/gcc/m4f/drivers_cc13x2x7.a(UDMACC26XX.c.obj)
 .ARM.attributes
                0x000000000000037e       0x34 /home/runner/work/CatSneeze_toolkit/CatSneeze_toolkit/_ti_sdk/simplelink_cc13xx_cc26xx_sdk_8_32_00_07/source/ti/drivers/lib/gcc/m4f/drivers_cc13x2x7.a(GPIOCC26XX.c.obj)
 .ARM.attributes
                0x00000000000003b2       0x34 /home/runner/work/CatSneeze_toolkit/CatSneeze_toolkit/_ti_sdk/simplelink_cc13xx_cc26xx_sdk_8_32_00_07/kernel/nortos/lib/gcc/m4f/nortos_cc13x2x7.a(NoRTOS.c.obj)
 .ARM.attributes
                0x00000000000003e6       0x34 /home/runner/work/CatSneeze_toolkit/CatSneeze_toolkit/_ti_sdk/simplelink_cc13xx_cc26xx_sdk_8_32_00_07/kernel/nortos/lib/gcc/m4f/nortos_cc13x2x7.a(SemaphoreP_nortos.c.obj)
 .ARM.attributes
                0x000000000000041a       0x34 /home/runner/work/CatSneeze_toolkit/CatSneeze_toolkit/_ti_sdk/simplelink_cc13xx_cc26xx_sdk_8_32_00_07/kernel/nortos/lib/gcc/m4f/nortos_cc13x2x7.a(SwiP_nortos.c.obj)
 .ARM.attributes
                0x000000000000044e       0x34 /home/runner/work/CatSneeze_toolkit/CatSneeze_toolkit/_ti_sdk/simplelink_cc13xx_cc26xx_sdk_8_32_00_07/kernel/nortos/lib/gcc/m4f/nortos_cc13x2x7.a(ClockPTimer_nortos.c.obj)
 .ARM.attributes
                0x0000000000000482       0x34 /home/runner/work/CatSneeze_toolkit/CatSneeze_toolkit/_ti_sdk/simplelink_cc13xx_cc26xx_sdk_8_32_00_07/kernel/nortos/lib/gcc/m4f/nortos_cc13x2x7.a(QueueP_nortos.c.obj)
 .ARM.attributes
                0x00000000000004b6       0x34 /home/runner/work/CatSneeze_toolkit/CatSneeze_toolkit/_ti_sdk/simplelink_cc13xx_cc26xx_sdk_8_32_00_07/kernel/nortos/lib/gcc/m4f/nortos_cc13x2x7.a(HwiPCC26XX_nortos.c.obj)
 .ARM.attributes
                0x00000000000004ea       0x34 /home/runner/work/CatSneeze_toolkit/CatSneeze_toolkit/_ti_sdk/simplelink_cc13xx_cc26xx_sdk_8_32_00_07/kernel/nortos/lib/gcc/m4f/nortos_cc13x2x7.a(PowerCC26X2_nortos.c.obj)
 .ARM.attributes
                0x000000000000051e       0x34 /home/runner/work/CatSneeze_toolkit/CatSneeze_toolkit/_ti_sdk/simplelink_cc13xx_cc26xx_sdk_8_32_00_07/kernel/nortos/lib/gcc/m4f/nortos_cc13x2x7.a(TimerPCC26XX_nortos.c.obj)
 .ARM.attributes
                0x0000000000000552       0x34 /home/runner/work/CatSneeze_toolkit/CatSneeze_toolkit/_ti_sdk/simplelink_cc13xx_cc26xx_sdk_8_32_00_07/source/ti/devices/cc13x2x7_cc26x2x7/driverlib/bin/gcc/driverlib.lib(chipinfo.c.obj)
 .ARM.attributes
                0x0000000000000586       0x34 /home/runner/work/CatSneeze_toolkit/CatSneeze_toolkit/_ti_sdk/simplelink_cc13xx_cc26xx_sdk_8_32_00_07/source/ti/devices/cc13x2x7_cc26x2x7/driverlib/bin/gcc/driverlib.lib(cpu.c.obj)
 .ARM.attributes
                0x00000000000005ba       0x34 /home/runner/work/CatSneeze_toolkit/CatSneeze_toolkit/_ti_sdk/simplelink_cc13xx_cc26xx_sdk_8_32_00_07/source/ti/devices/cc13x2x7_cc26x2x7/driverlib/bin/gcc/driverlib.lib(interrupt.c.obj)
 .ARM.attributes
                0x00000000000005ee       0x34 /home/runner/work/CatSneeze_toolkit/CatSneeze_toolkit/_ti_sdk/simplelink_cc13xx_cc26xx_sdk_8_32_00_07/source/ti/devices/cc13x2x7_cc26x2x7/driverlib/bin/gcc/driverlib.lib(osc.c.obj)
 .ARM.attributes
                0x0000000000000622       0x34 /home/runner/work/CatSneeze_toolkit/CatSneeze_toolkit/_ti_sdk/simplelink_cc13xx_cc26xx_sdk_8_32_00_07/source/ti/devices/cc13x2x7_cc26x2x7/driverlib/bin/gcc/driverlib.lib(prcm.c.obj)
 .ARM.attributes
                0x0000000000000656       0x34 /home/runner/work/CatSneeze_toolkit/CatSneeze_toolkit/_ti_sdk/simplelink_cc13xx_cc26xx_sdk_8_32_00_07/source/ti/devices/cc13x2x7_cc26x2x7/driverlib/bin/gcc/driverlib.lib(setup.c.obj)
 .ARM.attributes
                0x000000000000068a       0x34 /home/runner/work/CatSneeze_toolkit/CatSneeze_toolkit/_ti_sdk/simplelink_cc13xx_cc26xx_sdk_8_32_00_07/source/ti/devices/cc13x2x7_cc26x2x7/driverlib/bin/gcc/driverlib.lib(sys_ctrl.c.obj)
 .ARM.attributes
                0x00000000000006be       0x34 /home/runner/work/CatSneeze_toolkit/CatSneeze_toolkit/_ti_sdk/simplelink_cc13xx_cc26xx_sdk_8_32_00_07/source/ti/devices/cc13x2x7_cc26x2x7/driverlib/bin/gcc/driverlib.lib(aux_sysif.c.obj)
 .ARM.attributes
                0x00000000000006f2       0x1e /usr/lib/gcc/arm-none-eabi/10.3.1/thumb/v7e-m+fp/hard/libgcc.a(_aeabi_uldivmod.o)
 .ARM.attributes
                0x0000000000000710       0x34 /usr/lib/gcc/arm-none-eabi/10.3.1/thumb/v7e-m+fp/hard/libgcc.a(_udivmoddi4.o)
 .ARM.attributes
                0x0000000000000744       0x1e /usr/lib/gcc/arm-none-eabi/10.3.1/thumb/v7e-m+fp/hard/libgcc.a(_dvmd_tls.o)
 .ARM.attributes
                0x0000000000000762       0x34 /usr/lib/gcc/arm-none-eabi/10.3.1/../../../arm-none-eabi/lib/thumb/v7e-m+fp/hard/libc_nano.a(lib_a-atoi.o)
 .ARM.attributes
                0x0000000000000796       0x32 /usr/lib/gcc/arm-none-eabi/10.3.1/../../../arm-none-eabi/lib/thumb/v7e-m+fp/hard/libc_nano.a(lib_a-ctype_.o)
 .ARM.attributes
                0x00000000000007c8       0x1c /usr/lib/gcc/arm-none-eabi/10.3.1/../../../arm-none-eabi/lib/thumb/v7e-m+fp/hard/libc_nano.a(lib_a-memcpy.o)
 .ARM.attributes
                0x00000000000007e4       0x34 /usr/lib/gcc/arm-none-eabi/10.3.1/../../../arm-none-eabi/lib/thumb/v7e-m+fp/hard/libc_nano.a(lib_a-memset.o)
 .ARM.attributes
                0x0000000000000818       0x34 /usr/lib/gcc/arm-none-eabi/10.3.1/../../../arm-none-eabi/lib/thumb/v7e-m+fp/hard/libc_nano.a(lib_a-nano-freer.o)
 .ARM.attributes
                0x000000000000084c       0x34 /usr/lib/gcc/arm-none-eabi/10.3.1/../../../arm-none-eabi/lib/thumb/v7e-m+fp/hard/libc_nano.a(lib_a-nano-mallocr.o)
 .ARM.attributes
                0x0000000000000880       0x34 /usr/lib/gcc/arm-none-eabi/10.3.1/../../../arm-none-eabi/lib/thumb/v7e-m+fp/hard/libc_nano.a(lib_a-sbrkr.o)
 .ARM.attributes
                0x00000000000008b4       0x34 /usr/lib/gcc/arm-none-eabi/10.3.1/../../../arm-none-eabi/lib/thumb/v7e-m+fp/hard/libc_nano.a(lib_a-strchr.o)
 .ARM.attributes
                0x00000000000008e8       0x1c /usr/lib/gcc/arm-none-eabi/10.3.1/../../../arm-none-eabi/lib/thumb/v7e-m+fp/hard/libc_nano.a(lib_a-strcmp.o)
 .ARM.attributes
                0x0000000000000904       0x1c /usr/lib/gcc/arm-none-eabi/10.3.1/../../../arm-none-eabi/lib/thumb/v7e-m+fp/hard/libc_nano.a(lib_a-strlen.o)
 .ARM.attributes
                0x0000000000000920       0x34 /usr/lib/gcc/arm-none-eabi/10.3.1/../../../arm-none-eabi/lib/thumb/v7e-m+fp/hard/libc_nano.a(lib_a-strncmp.o)
 .ARM.attributes
                0x0000000000000954       0x34 /usr/lib/gcc/arm-none-eabi/10.3.1/../../../arm-none-eabi/lib/thumb/v7e-m+fp/hard/libc_nano.a(lib_a-strtol.o)
 .ARM.attributes
                0x0000000000000988       0x34 /usr/lib/gcc/arm-none-eabi/10.3.1/../../../arm-none-eabi/lib/thumb/v7e-m+fp/hard/libc_nano.a(lib_a-vsnprintf.o)
 .ARM.attributes
                0x00000000000009bc       0x34 /usr/lib/gcc/arm-none-eabi/10.3.1/../../../arm-none-eabi/lib/thumb/v7e-m+fp/hard/libc_nano.a(lib_a-errno.o)
 .ARM.attributes
                0x00000000000009f0       0x32 /usr/lib/gcc/arm-none-eabi/10.3.1/../../../arm-none-eabi/lib/thumb/v7e-m+fp/hard/libc_nano.a(lib_a-impure.o)
 .ARM.attributes
                0x0000000000000a22       0x34 /usr/lib/gcc/arm-none-eabi/10.3.1/../../../arm-none-eabi/lib/thumb/v7e-m+fp/hard/libc_nano.a(lib_a-mlock.o)
 .ARM.attributes
                0x0000000000000a56       0x34 /usr/lib/gcc/arm-none-eabi/10.3.1/../../../arm-none-eabi/lib/thumb/v7e-m+fp/hard/libc_nano.a(lib_a-nano-svfprintf.o)
 .ARM.attributes
                0x0000000000000a8a       0x34 /usr/lib/gcc/arm-none-eabi/10.3.1/../../../arm-none-eabi/lib/thumb/v7e-m+fp/hard/libc_nano.a(lib_a-nano-vfprintf_i.o)
 .ARM.attributes
                0x0000000000000abe       0x34 /usr/lib/gcc/arm-none-eabi/10.3.1/../../../arm-none-eabi/lib/thumb/v7e-m+fp/hard/libc_nano.a(lib_a-reent.o)
 .ARM.attributes
                0x0000000000000af2       0x1c /usr/lib/gcc/arm-none-eabi/10.3.1/../../../arm-none-eabi/lib/thumb/v7e-m+fp/hard/libc_nano.a(lib_a-memchr.o)
 .ARM.attributes
                0x0000000000000b0e       0x34 /usr/lib/gcc/arm-none-eabi/10.3.1/../../../arm-none-eabi/lib/thumb/v7e-m+fp/hard/libc_nano.a(lib_a-memmove.o)
 .ARM.attributes
                0x0000000000000b42       0x34 /usr/lib/gcc/arm-none-eabi/10.3.1/../../../arm-none-eabi/lib/thumb/v7e-m+fp/hard/libc_nano.a(lib_a-nano-reallocr.o)
 .ARM.attributes
                0x0000000000000b76       0x34 /usr/lib/gcc/arm-none-eabi/10.3.1/../../../arm-none-eabi/lib/thumb/v7e-m+fp/hard/libc_nano.a(lib_a-nano-msizer.o)
 .ARM.attributes
                0x0000000000000baa       0x34 /usr/lib/gcc/arm-none-eabi/10.3.1/../../../arm-none-eabi/lib/thumb/v7e-m+fp/hard/libnosys.a(sbrk.o)

.debug_info     0x0000000000000000    0x2759f
 .debug_info    0x0000000000000000     0x92ad /home/runner/work/CatSneeze_toolkit/CatSneeze_toolkit/_ti_sdk/simplelink_cc13xx_cc26xx_sdk_8_32_00_07/source/ti/drivers/rf/lib/gcc/m4f/rf_multiMode_cc13x2.a(RFCC26X2_multiMode.c.cc13x2.gcc.o)
 .debug_info    0x00000000000092ad      0x457 /home/runner/work/CatSneeze_toolkit/CatSneeze_toolkit/_ti_sdk/simplelink_cc13xx_cc26xx_sdk_8_32_00_07/source/ti/drivers/rf/lib/gcc/m4f/rf_multiMode_cc13x2.a(rfc.c.cc13x2.gcc.o)
 .debug_info    0x0000000000009704      0x24b /home/runner/work/CatSneeze_toolkit/CatSneeze_toolkit/_ti_sdk/simplelink_cc13xx_cc26xx_sdk_8_32_00_07/source/ti/drivers/rf/lib/gcc/m4f/rf_multiMode_cc13x2.a(rf_patch_cpe_prop.c.cc13x2.gcc.o)
 .debug_info    0x000000000000994f      0x391 /home/runner/work/CatSneeze_toolkit/CatSneeze_toolkit/_ti_sdk/simplelink_cc13xx_cc26xx_sdk_8_32_00_07/source/ti/drivers/lib/gcc/m4f/drivers_cc13x2x7.a(List.c.obj)
 .debug_info    0x0000000000009ce0     0x2903 /home/runner/work/CatSneeze_toolkit/CatSneeze_toolkit/_ti_sdk/simplelink_cc13xx_cc26xx_sdk_8_32_00_07/source/ti/drivers/lib/gcc/m4f/drivers_cc13x2x7.a(PowerCC26X2.c.obj)
 .debug_info    0x000000000000c5e3      0x9d0 /home/runner/work/CatSneeze_toolkit/CatSneeze_toolkit/_ti_sdk/simplelink_cc13xx_cc26xx_sdk_8_32_00_07/source/ti/drivers/lib/gcc/m4f/drivers_cc13x2x7.a(PowerCC26X2_calibrateRCOSC.c.obj)
 .debug_info    0x000000000000cfb3     0x1823 /home/runner/work/CatSneeze_toolkit/CatSneeze_toolkit/_ti_sdk/simplelink_cc13xx_cc26xx_sdk_8_32_00_07/source/ti/drivers/lib/gcc/m4f/drivers_cc13x2x7.a(UART2.c.obj)
 .debug_info    0x000000000000e7d6     0x3428 /home/runner/work/CatSneeze_toolkit/CatSneeze_toolkit/_ti_sdk/simplelink_cc13xx_cc26xx_sdk_8_32_00_07/source/ti/drivers/lib/gcc/m4f/drivers_cc13x2x7.a(UART2CC26X2.c.obj)
 .debug_info    0x0000000000011bfe      0x4f3 /home/runner/work/CatSneeze_toolkit/CatSneeze_toolkit/_ti_sdk/simplelink_cc13xx_cc26xx_sdk_8_32_00_07/source/ti/drivers/lib/gcc/m4f/drivers_cc13x2x7.a(PowerCC26X2_calibrateRCOSC_helpers.c.obj)
 .debug_info    0x00000000000120f1      0x65f /home/runner/work/CatSneeze_toolkit/CatSneeze_toolkit/_ti_sdk/simplelink_cc13xx_cc26xx_sdk_8_32_00_07/source/ti/drivers/lib/gcc/m4f/drivers_cc13x2x7.a(PowerCC26X2_helpers.c.obj)
 .debug_info    0x0000000000012750      0x789 /home/runner/work/CatSneeze_toolkit/CatSneeze_toolkit/_ti_sdk/simplelink_cc13xx_cc26xx_sdk_8_32_00_07/source/ti/drivers/lib/gcc/m4f/drivers_cc13x2x7.a(RingBuf.c.obj)
 .debug_info    0x0000000000012ed9      0x69f /home/runner/work/CatSneeze_toolkit/CatSneeze_toolkit/_ti_sdk/simplelink_cc13xx_cc26xx_sdk_8_32_00_07/source/ti/drivers/lib/gcc/m4f/drivers_cc13x2x7.a(UDMACC26XX.c.obj)
 .debug_info    0x0000000000013578      0x9a0 /home/runner/work/CatSneeze_toolkit/CatSneeze_toolkit/_ti_sdk/simplelink_cc13xx_cc26xx_sdk_8_32_00_07/source/ti/drivers/lib/gcc/m4f/drivers_cc13x2x7.a(GPIOCC26XX.c.obj)
 .debug_info    0x0000000000013f18      0x1f9 /home/runner/work/CatSneeze_toolkit/CatSneeze_toolkit/_ti_sdk/simplelink_cc13xx_cc26xx_sdk_8_32_00_07/kernel/nortos/lib/gcc/m4f/nortos_cc13x2x7.a(NoRTOS.c.obj)
 .debug_info    0x0000000000014111      0xbad /home/runner/work/CatSneeze_toolkit/CatSneeze_toolkit/_ti_sdk/simplelink_cc13xx_cc26xx_sdk_8_32_00_07/kernel/nortos/lib/gcc/m4f/nortos_cc13x2x7.a(SemaphoreP_nortos.c.obj)
 .debug_info    0x0000000000014cbe     0x10fc /home/runner/work/CatSneeze_toolkit/CatSneeze_toolkit/_ti_sdk/simplelink_cc13xx_cc26xx_sdk_8_32_00_07/kernel/nortos/lib/gcc/m4f/nortos_cc13x2x7.a(SwiP_nortos.c.obj)
 .debug_info    0x0000000000015dba     0x1d5c /home/runner/work/CatSneeze_toolkit/CatSneeze_toolkit/_ti_sdk/simplelink_cc13xx_cc26xx_sdk_8_32_00_07/kernel/nortos/lib/gcc/m4f/nortos_cc13x2x7.a(ClockPTimer_nortos.c.obj)
 .debug_info    0x0000000000017b16      0x48d /home/runner/work/CatSneeze_toolkit/CatSneeze_toolkit/_ti_sdk/simplelink_cc13xx_cc26xx_sdk_8_32_00_07/kernel/nortos/lib/gcc/m4f/nortos_cc13x2x7.a(QueueP_nortos.c.obj)
 .debug_info    0x0000000000017fa3      0xea6 /home/runner/work/CatSneeze_toolkit/CatSneeze_toolkit/_ti_sdk/simplelink_cc13xx_cc26xx_sdk_8_32_00_07/kernel/nortos/lib/gcc/m4f/nortos_cc13x2x7.a(HwiPCC26XX_nortos.c.obj)
 .debug_info    0x0000000000018e49      0x7c8 /home/runner/work/CatSneeze_toolkit/CatSneeze_toolkit/_ti_sdk/simplelink_cc13xx_cc26xx_sdk_8_32_00_07/kernel/nortos/lib/gcc/m4f/nortos_cc13x2x7.a(PowerCC26X2_nortos.c.obj)
 .debug_info    0x0000000000019611      0xf98 /home/runner/work/CatSneeze_toolkit/CatSneeze_toolkit/_ti_sdk/simplelink_cc13xx_cc26xx_sdk_8_32_00_07/kernel/nortos/lib/gcc/m4f/nortos_cc13x2x7.a(TimerPCC26XX_nortos.c.obj)
 .debug_info    0x000000000001a5a9      0x559 /home/runner/work/CatSneeze_toolkit/CatSneeze_toolkit/_ti_sdk/simplelink_cc13xx_cc26xx_sdk_8_32_00_07/source/ti/devices/cc13x2x7_cc26x2x7/driverlib/bin/gcc/driverlib.lib(chipinfo.c.obj)
 .debug_info    0x000000000001ab02      0x15c /home/runner/work/CatSneeze_toolkit/CatSneeze_toolkit/_ti_sdk/simplelink_cc13xx_cc26xx_sdk_8_32_00_07/source/ti/devices/cc13x2x7_cc26x2x7/driverlib/bin/gcc/driverlib.lib(cpu.c.obj)
 .debug_info    0x000000000001ac5e      0x389 /home/runner/work/CatSneeze_toolkit/CatSneeze_toolkit/_ti_sdk/simplelink_cc13xx_cc26xx_sdk_8_32_00_07/source/ti/devices/cc13x2x7_cc26x2x7/driverlib/bin/gcc/driverlib.lib(interrupt.c.obj)
 .debug_info    0x000000000001afe7     0x19d5 /home/runner/work/CatSneeze_toolkit/CatSneeze_toolkit/_ti_sdk/simplelink_cc13xx_cc26xx_sdk_8_32_00_07/source/ti/devices/cc13x2x7_cc26x2x7/driverlib/bin/gcc/driverlib.lib(osc.c.obj)
 .debug_info    0x000000000001c9bc      0x57d /home/runner/work/CatSneeze_toolkit/CatSneeze_toolkit/_ti_sdk/simplelink_cc13xx_cc26xx_sdk_8_32_00_07/source/ti/devices/cc13x2x7_cc26x2x7/driverlib/bin/gcc/driverlib.lib(prcm.c.obj)
 .debug_info    0x000000000001cf39      0x29c /home/runner/work/CatSneeze_toolkit/CatSneeze_toolkit/_ti_sdk/simplelink_cc13xx_cc26xx_sdk_8_32_00_07/source/ti/devices/cc13x2x7_cc26x2x7/driverlib/bin/gcc/driverlib.lib(setup.c.obj)
 .debug_info    0x000000000001d1d5      0x4cb /home/runner/work/CatSneeze_toolkit/CatSneeze_toolkit/_ti_sdk/simplelink_cc13xx_cc26xx_sdk_8_32_00_07/source/ti/devices/cc13x2x7_cc26x2x7/driverlib/bin/gcc/driverlib.lib(sys_ctrl.c.obj)
 .debug_info    0x000000000001d6a0      0x12e /home/runner/work/CatSneeze_toolkit/CatSneeze_toolkit/_ti_sdk/simplelink_cc13xx_cc26xx_sdk_8_32_00_07/source/ti/devices/cc13x2x7_cc26x2x7/driverlib/bin/gcc/driverlib.lib(aux_sysif.c.obj)
 .debug_info    0x000000000001d7ce       0x26 /usr/lib/gcc/arm-none-eabi/10.3.1/thumb/v7e-m+fp/hard/libgcc.a(_aeabi_uldivmod.o)
 .debug_info    0x000000000001d7f4      0x717 /usr/lib/gcc/arm-none-eabi/10.3.1/thumb/v7e-m+fp/hard/libgcc.a(_udivmoddi4.o)
 .debug_info    0x000000000001df0b       0x26 /usr/lib/gcc/arm-none-eabi/10.3.1/thumb/v7e-m+fp/hard/libgcc.a(_dvmd_tls.o)
 .debug_info    0x000000000001df31      0x848 /usr/lib/gcc/arm-none-eabi/10.3.1/../../../arm-none-eabi/lib/thumb/v7e-m+fp/hard/libc_nano.a(lib_a-atoi.o)
 .debug_info    0x000000000001e779       0xb8 /usr/lib/gcc/arm-none-eabi/10.3.1/../../../arm-none-eabi/lib/thumb/v7e-m+fp/hard/libc_nano.a(lib_a-ctype_.o)
 .debug_info    0x000000000001e831       0x26 /usr/lib/gcc/arm-none-eabi/10.3.1/../../../arm-none-eabi/lib/thumb/v7e-m+fp/hard/libc_nano.a(lib_a-memcpy.o)
 .debug_info    0x000000000001e857      0x137 /usr/lib/gcc/arm-none-eabi/10.3.1/../../../arm-none-eabi/lib/thumb/v7e-m+fp/hard/libc_nano.a(lib_a-memset.o)
 .debug_info    0x000000000001e98e      0x903 /usr/lib/gcc/arm-none-eabi/10.3.1/../../../arm-none-eabi/lib/thumb/v7e-m+fp/hard/libc_nano.a(lib_a-nano-freer.o)
 .debug_info    0x000000000001f291      0xa0c /usr/lib/gcc/arm-none-eabi/10.3.1/../../../arm-none-eabi/lib/thumb/v7e-m+fp/hard/libc_nano.a(lib_a-nano-mallocr.o)
 .debug_info    0x000000000001fc9d      0x828 /usr/lib/gcc/arm-none-eabi/10.3.1/../../../arm-none-eabi/lib/thumb/v7e-m+fp/hard/libc_nano.a(lib_a-sbrkr.o)
 .debug_info    0x00000000000204c5      0x13a /usr/lib/gcc/arm-none-eabi/10.3.1/../../../arm-none-eabi/lib/thumb/v7e-m+fp/hard/libc_nano.a(lib_a-strchr.o)
 .debug_info    0x00000000000205ff       0x26 /usr/lib/gcc/arm-none-eabi/10.3.1/../../../arm-none-eabi/lib/thumb/v7e-m+fp/hard/libc_nano.a(lib_a-strcmp.o)
 .debug_info    0x0000000000020625       0x26 /usr/lib/gcc/arm-none-eabi/10.3.1/../../../arm-none-eabi/lib/thumb/v7e-m+fp/hard/libc_nano.a(lib_a-strlen.o)
 .debug_info    0x000000000002064b      0x110 /usr/lib/gcc/arm-none-eabi/10.3.1/../../../arm-none-eabi/lib/thumb/v7e-m+fp/hard/libc_nano.a(lib_a-strncmp.o)
 .debug_info    0x000000000002075b      0xf00 /usr/lib/gcc/arm-none-eabi/10.3.1/../../../arm-none-eabi/lib/thumb/v7e-m+fp/hard/libc_nano.a(lib_a-strtol.o)
 .debug_info    0x000000000002165b      0xa00 /usr/lib/gcc/arm-none-eabi/10.3.1/../../../arm-none-eabi/lib/thumb/v7e-m+fp/hard/libc_nano.a(lib_a-vsnprintf.o)
 .debug_info    0x000000000002205b      0x7ae /usr/lib/gcc/arm-none-eabi/10.3.1/../../../arm-none-eabi/lib/thumb/v7e-m+fp/hard/libc_nano.a(lib_a-errno.o)
 .debug_info    0x0000000000022809      0x863 /usr/lib/gcc/arm-none-eabi/10.3.1/../../../arm-none-eabi/lib/thumb/v7e-m+fp/hard/libc_nano.a(lib_a-impure.o)
 .debug_info    0x000000000002306c      0x7dc /usr/lib/gcc/arm-none-eabi/10.3.1/../../../arm-none-eabi/lib/thumb/v7e-m+fp/hard/libc_nano.a(lib_a-mlock.o)
 .debug_info    0x0000000000023848     0x10d5 /usr/lib/gcc/arm-none-eabi/10.3.1/../../../arm-none-eabi/lib/thumb/v7e-m+fp/hard/libc_nano.a(lib_a-nano-svfprintf.o)
 .debug_info    0x000000000002491d      0xe9e /usr/lib/gcc/arm-none-eabi/10.3.1/../../../arm-none-eabi/lib/thumb/v7e-m+fp/hard/libc_nano.a(lib_a-nano-vfprintf_i.o)
 .debug_info    0x00000000000257bb      0xa7e /usr/lib/gcc/arm-none-eabi/10.3.1/../../../arm-none-eabi/lib/thumb/v7e-m+fp/hard/libc_nano.a(lib_a-reent.o)
 .debug_info    0x0000000000026239       0x26 /usr/lib/gcc/arm-none-eabi/10.3.1/../../../arm-none-eabi/lib/thumb/v7e-m+fp/hard/libc_nano.a(lib_a-memchr.o)
 .debug_info    0x000000000002625f      0x152 /usr/lib/gcc/arm-none-eabi/10.3.1/../../../arm-none-eabi/lib/thumb/v7e-m+fp/hard/libc_nano.a(lib_a-memmove.o)
 .debug_info    0x00000000000263b1      0x911 /usr/lib/gcc/arm-none-eabi/10.3.1/../../../arm-none-eabi/lib/thumb/v7e-m+fp/hard/libc_nano.a(lib_a-nano-reallocr.o)
 .debug_info    0x0000000000026cc2      0x840 /usr/lib/gcc/arm-none-eabi/10.3.1/../../../arm-none-eabi/lib/thumb/v7e-m+fp/hard/libc_nano.a(lib_a-nano-msizer.o)
 .debug_info    0x0000000000027502       0x9d /usr/lib/gcc/arm-none-eabi/10.3.1/../../../arm-none-eabi/lib/thumb/v7e-m+fp/hard/libnosys.a(sbrk.o)

.debug_abbrev   0x0000000000000000     0x7c61
 .debug_abbrev  0x0000000000000000      0x7c3 /home/runner/work/CatSneeze_toolkit/CatSneeze_toolkit/_ti_sdk/simplelink_cc13xx_cc26xx_sdk_8_32_00_07/source/ti/drivers/rf/lib/gcc/m4f/rf_multiMode_cc13x2.a(RFCC26X2_multiMode.c.cc13x2.gcc.o)
 .debug_abbrev  0x00000000000007c3      0x227 /home/runner/work/CatSneeze_toolkit/CatSneeze_toolkit/_ti_sdk/simplelink_cc13xx_cc26xx_sdk_8_32_00_07/source/ti/drivers/rf/lib/gcc/m4f/rf_multiMode_cc13x2.a(rfc.c.cc13x2.gcc.o)
 .debug_abbrev  0x00000000000009ea      0x1a6 /home/runner/work/CatSneeze_toolkit/CatSneeze_toolkit/_ti_sdk/simplelink_cc13xx_cc26xx_sdk_8_32_00_07/source/ti/drivers/rf/lib/gcc/m4f/rf_multiMode_cc13x2.a(rf_patch_cpe_prop.c.cc13x2.gcc.o)
 .debug_abbrev  0x0000000000000b90      0x15e /home/runner/work/CatSneeze_toolkit/CatSneeze_toolkit/_ti_sdk/simplelink_cc13xx_cc26xx_sdk_8_32_00_07/source/ti/drivers/lib/gcc/m4f/drivers_cc13x2x7.a(List.c.obj)
 .debug_abbrev  0x0000000000000cee      0x6b5 /home/runner/work/CatSneeze_toolkit/CatSneeze_toolkit/_ti_sdk/simplelink_cc13xx_cc26xx_sdk_8_32_00_07/source/ti/drivers/lib/gcc/m4f/drivers_cc13x2x7.a(PowerCC26X2.c.obj)
 .debug_abbrev  0x00000000000013a3      0x3aa /home/runner/work/CatSneeze_toolkit/CatSneeze_toolkit/_ti_sdk/simplelink_cc13xx_cc26xx_sdk_8_32_00_07/source/ti/drivers/lib/gcc/m4f/drivers_cc13x2x7.a(PowerCC26X2_calibrateRCOSC.c.obj)
 .debug_abbrev  0x000000000000174d      0x3cc /home/runner/work/CatSneeze_toolkit/CatSneeze_toolkit/_ti_sdk/simplelink_cc13xx_cc26xx_sdk_8_32_00_07/source/ti/drivers/lib/gcc/m4f/drivers_cc13x2x7.a(UART2.c.obj)
 .debug_abbrev  0x0000000000001b19      0x5b1 /home/runner/work/CatSneeze_toolkit/CatSneeze_toolkit/_ti_sdk/simplelink_cc13xx_cc26xx_sdk_8_32_00_07/source/ti/drivers/lib/gcc/m4f/drivers_cc13x2x7.a(UART2CC26X2.c.obj)
 .debug_abbrev  0x00000000000020ca      0x19c /home/runner/work/CatSneeze_toolkit/CatSneeze_toolkit/_ti_sdk/simplelink_cc13xx_cc26xx_sdk_8_32_00_07/source/ti/drivers/lib/gcc/m4f/drivers_cc13x2x7.a(PowerCC26X2_calibrateRCOSC_helpers.c.obj)
 .debug_abbrev  0x0000000000002266      0x309 /home/runner/work/CatSneeze_toolkit/CatSneeze_toolkit/_ti_sdk/simplelink_cc13xx_cc26xx_sdk_8_32_00_07/source/ti/drivers/lib/gcc/m4f/drivers_cc13x2x7.a(PowerCC26X2_helpers.c.obj)
 .debug_abbrev  0x000000000000256f      0x270 /home/runner/work/CatSneeze_toolkit/CatSneeze_toolkit/_ti_sdk/simplelink_cc13xx_cc26xx_sdk_8_32_00_07/source/ti/drivers/lib/gcc/m4f/drivers_cc13x2x7.a(RingBuf.c.obj)
 .debug_abbrev  0x00000000000027df      0x323 /home/runner/work/CatSneeze_toolkit/CatSneeze_toolkit/_ti_sdk/simplelink_cc13xx_cc26xx_sdk_8_32_00_07/source/ti/drivers/lib/gcc/m4f/drivers_cc13x2x7.a(UDMACC26XX.c.obj)
 .debug_abbrev  0x0000000000002b02      0x2ca /home/runner/work/CatSneeze_toolkit/CatSneeze_toolkit/_ti_sdk/simplelink_cc13xx_cc26xx_sdk_8_32_00_07/source/ti/drivers/lib/gcc/m4f/drivers_cc13x2x7.a(GPIOCC26XX.c.obj)
 .debug_abbrev  0x0000000000002dcc      0x142 /home/runner/work/CatSneeze_toolkit/CatSneeze_toolkit/_ti_sdk/simplelink_cc13xx_cc26xx_sdk_8_32_00_07/kernel/nortos/lib/gcc/m4f/nortos_cc13x2x7.a(NoRTOS.c.obj)
 .debug_abbrev  0x0000000000002f0e      0x418 /home/runner/work/CatSneeze_toolkit/CatSneeze_toolkit/_ti_sdk/simplelink_cc13xx_cc26xx_sdk_8_32_00_07/kernel/nortos/lib/gcc/m4f/nortos_cc13x2x7.a(SemaphoreP_nortos.c.obj)
 .debug_abbrev  0x0000000000003326      0x486 /home/runner/work/CatSneeze_toolkit/CatSneeze_toolkit/_ti_sdk/simplelink_cc13xx_cc26xx_sdk_8_32_00_07/kernel/nortos/lib/gcc/m4f/nortos_cc13x2x7.a(SwiP_nortos.c.obj)
 .debug_abbrev  0x00000000000037ac      0x4b4 /home/runner/work/CatSneeze_toolkit/CatSneeze_toolkit/_ti_sdk/simplelink_cc13xx_cc26xx_sdk_8_32_00_07/kernel/nortos/lib/gcc/m4f/nortos_cc13x2x7.a(ClockPTimer_nortos.c.obj)
 .debug_abbrev  0x0000000000003c60      0x1ee /home/runner/work/CatSneeze_toolkit/CatSneeze_toolkit/_ti_sdk/simplelink_cc13xx_cc26xx_sdk_8_32_00_07/kernel/nortos/lib/gcc/m4f/nortos_cc13x2x7.a(QueueP_nortos.c.obj)
 .debug_abbrev  0x0000000000003e4e      0x4c8 /home/runner/work/CatSneeze_toolkit/CatSneeze_toolkit/_ti_sdk/simplelink_cc13xx_cc26xx_sdk_8_32_00_07/kernel/nortos/lib/gcc/m4f/nortos_cc13x2x7.a(HwiPCC26XX_nortos.c.obj)
 .debug_abbrev  0x0000000000004316      0x2d7 /home/runner/work/CatSneeze_toolkit/CatSneeze_toolkit/_ti_sdk/simplelink_cc13xx_cc26xx_sdk_8_32_00_07/kernel/nortos/lib/gcc/m4f/nortos_cc13x2x7.a(PowerCC26X2_nortos.c.obj)
 .debug_abbrev  0x00000000000045ed      0x4cd /home/runner/work/CatSneeze_toolkit/CatSneeze_toolkit/_ti_sdk/simplelink_cc13xx_cc26xx_sdk_8_32_00_07/kernel/nortos/lib/gcc/m4f/nortos_cc13x2x7.a(TimerPCC26XX_nortos.c.obj)
 .debug_abbrev  0x0000000000004aba      0x1ea /home/runner/work/CatSneeze_toolkit/CatSneeze_toolkit/_ti_sdk/simplelink_cc13xx_cc26xx_sdk_8_32_00_07/source/ti/devices/cc13x2x7_cc26x2x7/driverlib/bin/gcc/driverlib.lib(chipinfo.c.obj)
 .debug_abbrev  0x0000000000004ca4       0xe8 /home/runner/work/CatSneeze_toolkit/CatSneeze_toolkit/_ti_sdk/simplelink_cc13xx_cc26xx_sdk_8_32_00_07/source/ti/devices/cc13x2x7_cc26x2x7/driverlib/bin/gcc/driverlib.lib(cpu.c.obj)
 .debug_abbrev  0x0000000000004d8c      0x17b /home/runner/work/CatSneeze_toolkit/CatSneeze_toolkit/_ti_sdk/simplelink_cc13xx_cc26xx_sdk_8_32_00_07/source/ti/devices/cc13x2x7_cc26x2x7/driverlib/bin/gcc/driverlib.lib(interrupt.c.obj)
 .debug_abbrev  0x0000000000004f07      0x499 /home/runner/work/CatSneeze_toolkit/CatSneeze_toolkit/_ti_sdk/simplelink_cc13xx_cc26xx_sdk_8_32_00_07/source/ti/devices/cc13x2x7_cc26x2x7/driverlib/bin/gcc/driverlib.lib(osc.c.obj)
 .debug_abbrev  0x00000000000053a0      0x1e0 /home/runner/work/CatSneeze_toolkit/CatSneeze_toolkit/_ti_sdk/simplelink_cc13xx_cc26xx_sdk_8_32_00_07/source/ti/devices/cc13x2x7_cc26x2x7/driverlib/bin/gcc/driverlib.lib(prcm.c.obj)
 .debug_abbrev  0x0000000000005580      0x1d2 /home/runner/work/CatSneeze_toolkit/CatSneeze_toolkit/_ti_sdk/simplelink_cc13xx_cc26xx_sdk_8_32_00_07/source/ti/devices/cc13x2x7_cc26x2x7/driverlib/bin/gcc/driverlib.lib(setup.c.obj)
 .debug_abbrev  0x0000000000005752      0x263 /home/runner/work/CatSneeze_toolkit/CatSneeze_toolkit/_ti_sdk/simplelink_cc13xx_cc26xx_sdk_8_32_00_07/source/ti/devices/cc13x2x7_cc26x2x7/driverlib/bin/gcc/driverlib.lib(sys_ctrl.c.obj)
 .debug_abbrev  0x00000000000059b5       0xa5 /home/runner/work/CatSneeze_toolkit/CatSneeze_toolkit/_ti_sdk/simplelink_cc13xx_cc26xx_sdk_8_32_00_07/source/ti/devices/cc13x2x7_cc26x2x7/driverlib/bin/gcc/driverlib.lib(aux_sysif.c.obj)
 .debug_abbrev  0x0000000000005a5a       0x14 /usr/lib/gcc/arm-none-eabi/10.3.1/thumb/v7e-m+fp/hard/libgcc.a(_aeabi_uldivmod.o)
 .debug_abbrev  0x0000000000005a6e      0x163 /usr/lib/gcc/arm-none-eabi/10.3.1/thumb/v7e-m+fp/hard/libgcc.a(_udivmoddi4.o)
 .debug_abbrev  0x0000000000005bd1       0x14 /usr/lib/gcc/arm-none-eabi/10.3.1/thumb/v7e-m+fp/hard/libgcc.a(_dvmd_tls.o)
 .debug_abbrev  0x0000000000005be5      0x187 /usr/lib/gcc/arm-none-eabi/10.3.1/../../../arm-none-eabi/lib/thumb/v7e-m+fp/hard/libc_nano.a(lib_a-atoi.o)
 .debug_abbrev  0x0000000000005d6c       0x62 /usr/lib/gcc/arm-none-eabi/10.3.1/../../../arm-none-eabi/lib/thumb/v7e-m+fp/hard/libc_nano.a(lib_a-ctype_.o)
 .debug_abbrev  0x0000000000005dce       0x14 /usr/lib/gcc/arm-none-eabi/10.3.1/../../../arm-none-eabi/lib/thumb/v7e-m+fp/hard/libc_nano.a(lib_a-memcpy.o)
 .debug_abbrev  0x0000000000005de2       0xb4 /usr/lib/gcc/arm-none-eabi/10.3.1/../../../arm-none-eabi/lib/thumb/v7e-m+fp/hard/libc_nano.a(lib_a-memset.o)
 .debug_abbrev  0x0000000000005e96      0x235 /usr/lib/gcc/arm-none-eabi/10.3.1/../../../arm-none-eabi/lib/thumb/v7e-m+fp/hard/libc_nano.a(lib_a-nano-freer.o)
 .debug_abbrev  0x00000000000060cb      0x290 /usr/lib/gcc/arm-none-eabi/10.3.1/../../../arm-none-eabi/lib/thumb/v7e-m+fp/hard/libc_nano.a(lib_a-nano-mallocr.o)
 .debug_abbrev  0x000000000000635b      0x1d6 /usr/lib/gcc/arm-none-eabi/10.3.1/../../../arm-none-eabi/lib/thumb/v7e-m+fp/hard/libc_nano.a(lib_a-sbrkr.o)
 .debug_abbrev  0x0000000000006531       0x94 /usr/lib/gcc/arm-none-eabi/10.3.1/../../../arm-none-eabi/lib/thumb/v7e-m+fp/hard/libc_nano.a(lib_a-strchr.o)
 .debug_abbrev  0x00000000000065c5       0x14 /usr/lib/gcc/arm-none-eabi/10.3.1/../../../arm-none-eabi/lib/thumb/v7e-m+fp/hard/libc_nano.a(lib_a-strcmp.o)
 .debug_abbrev  0x00000000000065d9       0x14 /usr/lib/gcc/arm-none-eabi/10.3.1/../../../arm-none-eabi/lib/thumb/v7e-m+fp/hard/libc_nano.a(lib_a-strlen.o)
 .debug_abbrev  0x00000000000065ed       0x8f /usr/lib/gcc/arm-none-eabi/10.3.1/../../../arm-none-eabi/lib/thumb/v7e-m+fp/hard/libc_nano.a(lib_a-strncmp.o)
 .debug_abbrev  0x000000000000667c      0x2cf /usr/lib/gcc/arm-none-eabi/10.3.1/../../../arm-none-eabi/lib/thumb/v7e-m+fp/hard/libc_nano.a(lib_a-strtol.o)
 .debug_abbrev  0x000000000000694b      0x27d /usr/lib/gcc/arm-none-eabi/10.3.1/../../../arm-none-eabi/lib/thumb/v7e-m+fp/hard/libc_nano.a(lib_a-vsnprintf.o)
 .debug_abbrev  0x0000000000006bc8      0x157 /usr/lib/gcc/arm-none-eabi/10.3.1/../../../arm-none-eabi/lib/thumb/v7e-m+fp/hard/libc_nano.a(lib_a-errno.o)
 .debug_abbrev  0x0000000000006d1f      0x151 /usr/lib/gcc/arm-none-eabi/10.3.1/../../../arm-none-eabi/lib/thumb/v7e-m+fp/hard/libc_nano.a(lib_a-impure.o)
 .debug_abbrev  0x0000000000006e70      0x189 /usr/lib/gcc/arm-none-eabi/10.3.1/../../../arm-none-eabi/lib/thumb/v7e-m+fp/hard/libc_nano.a(lib_a-mlock.o)
 .debug_abbrev  0x0000000000006ff9      0x2ca /usr/lib/gcc/arm-none-eabi/10.3.1/../../../arm-none-eabi/lib/thumb/v7e-m+fp/hard/libc_nano.a(lib_a-nano-svfprintf.o)
 .debug_abbrev  0x00000000000072c3      0x25c /usr/lib/gcc/arm-none-eabi/10.3.1/../../../arm-none-eabi/lib/thumb/v7e-m+fp/hard/libc_nano.a(lib_a-nano-vfprintf_i.o)
 .debug_abbrev  0x000000000000751f      0x265 /usr/lib/gcc/arm-none-eabi/10.3.1/../../../arm-none-eabi/lib/thumb/v7e-m+fp/hard/libc_nano.a(lib_a-reent.o)
 .debug_abbrev  0x0000000000007784       0x14 /usr/lib/gcc/arm-none-eabi/10.3.1/../../../arm-none-eabi/lib/thumb/v7e-m+fp/hard/libc_nano.a(lib_a-memchr.o)
 .debug_abbrev  0x0000000000007798       0xc0 /usr/lib/gcc/arm-none-eabi/10.3.1/../../../arm-none-eabi/lib/thumb/v7e-m+fp/hard/libc_nano.a(lib_a-memmove.o)
 .debug_abbrev  0x0000000000007858      0x1d6 /usr/lib/gcc/arm-none-eabi/10.3.1/../../../arm-none-eabi/lib/thumb/v7e-m+fp/hard/libc_nano.a(lib_a-nano-reallocr.o)
 .debug_abbrev  0x0000000000007a2e      0x191 /usr/lib/gcc/arm-none-eabi/10.3.1/../../../arm-none-eabi/lib/thumb/v7e-m+fp/hard/libc_nano.a(lib_a-nano-msizer.o)
 .debug_abbrev  0x0000000000007bbf       0xa2 /usr/lib/gcc/arm-none-eabi/10.3.1/../../../arm-none-eabi/lib/thumb/v7e-m+fp/hard/libnosys.a(sbrk.o)

.debug_loclists
                0x0000000000000000     0xbbc8
 .debug_loclists
                0x0000000000000000     0x386b /home/runner/work/CatSneeze_toolkit/CatSneeze_toolkit/_ti_sdk/simplelink_cc13xx_cc26xx_sdk_8_32_00_07/source/ti/drivers/rf/lib/gcc/m4f/rf_multiMode_cc13x2.a(RFCC26X2_multiMode.c.cc13x2.gcc.o)
 .debug_loclists
                0x000000000000386b      0x118 /home/runner/work/CatSneeze_toolkit/CatSneeze_toolkit/_ti_sdk/simplelink_cc13xx_cc26xx_sdk_8_32_00_07/source/ti/drivers/rf/lib/gcc/m4f/rf_multiMode_cc13x2.a(rfc.c.cc13x2.gcc.o)
 .debug_loclists
                0x0000000000003983       0x1c /home/runner/work/CatSneeze_toolkit/CatSneeze_toolkit/_ti_sdk/simplelink_cc13xx_cc26xx_sdk_8_32_00_07/source/ti/drivers/rf/lib/gcc/m4f/rf_multiMode_cc13x2.a(rf_patch_cpe_prop.c.cc13x2.gcc.o)
 .debug_loclists
                0x000000000000399f      0x282 /home/runner/work/CatSneeze_toolkit/CatSneeze_toolkit/_ti_sdk/simplelink_cc13xx_cc26xx_sdk_8_32_00_07/source/ti/drivers/lib/gcc/m4f/drivers_cc13x2x7.a(List.c.obj)
 .debug_loclists
                0x0000000000003c21      0xdfb /home/runner/work/CatSneeze_toolkit/CatSneeze_toolkit/_ti_sdk/simplelink_cc13xx_cc26xx_sdk_8_32_00_07/source/ti/drivers/lib/gcc/m4f/drivers_cc13x2x7.a(PowerCC26X2.c.obj)
 .debug_loclists
                0x0000000000004a1c      0x180 /home/runner/work/CatSneeze_toolkit/CatSneeze_toolkit/_ti_sdk/simplelink_cc13xx_cc26xx_sdk_8_32_00_07/source/ti/drivers/lib/gcc/m4f/drivers_cc13x2x7.a(PowerCC26X2_calibrateRCOSC.c.obj)
 .debug_loclists
                0x0000000000004b9c      0xa99 /home/runner/work/CatSneeze_toolkit/CatSneeze_toolkit/_ti_sdk/simplelink_cc13xx_cc26xx_sdk_8_32_00_07/source/ti/drivers/lib/gcc/m4f/drivers_cc13x2x7.a(UART2.c.obj)
 .debug_loclists
                0x0000000000005635     0x1036 /home/runner/work/CatSneeze_toolkit/CatSneeze_toolkit/_ti_sdk/simplelink_cc13xx_cc26xx_sdk_8_32_00_07/source/ti/drivers/lib/gcc/m4f/drivers_cc13x2x7.a(UART2CC26X2.c.obj)
 .debug_loclists
                0x000000000000666b      0x19c /home/runner/work/CatSneeze_toolkit/CatSneeze_toolkit/_ti_sdk/simplelink_cc13xx_cc26xx_sdk_8_32_00_07/source/ti/drivers/lib/gcc/m4f/drivers_cc13x2x7.a(PowerCC26X2_calibrateRCOSC_helpers.c.obj)
 .debug_loclists
                0x0000000000006807       0xea /home/runner/work/CatSneeze_toolkit/CatSneeze_toolkit/_ti_sdk/simplelink_cc13xx_cc26xx_sdk_8_32_00_07/source/ti/drivers/lib/gcc/m4f/drivers_cc13x2x7.a(PowerCC26X2_helpers.c.obj)
 .debug_loclists
                0x00000000000068f1      0x40b /home/runner/work/CatSneeze_toolkit/CatSneeze_toolkit/_ti_sdk/simplelink_cc13xx_cc26xx_sdk_8_32_00_07/source/ti/drivers/lib/gcc/m4f/drivers_cc13x2x7.a(RingBuf.c.obj)
 .debug_loclists
                0x0000000000006cfc      0x129 /home/runner/work/CatSneeze_toolkit/CatSneeze_toolkit/_ti_sdk/simplelink_cc13xx_cc26xx_sdk_8_32_00_07/source/ti/drivers/lib/gcc/m4f/drivers_cc13x2x7.a(UDMACC26XX.c.obj)
 .debug_loclists
                0x0000000000006e25      0x5f9 /home/runner/work/CatSneeze_toolkit/CatSneeze_toolkit/_ti_sdk/simplelink_cc13xx_cc26xx_sdk_8_32_00_07/source/ti/drivers/lib/gcc/m4f/drivers_cc13x2x7.a(GPIOCC26XX.c.obj)
 .debug_loclists
                0x000000000000741e       0x2a /home/runner/work/CatSneeze_toolkit/CatSneeze_toolkit/_ti_sdk/simplelink_cc13xx_cc26xx_sdk_8_32_00_07/kernel/nortos/lib/gcc/m4f/nortos_cc13x2x7.a(NoRTOS.c.obj)
 .debug_loclists
                0x0000000000007448      0x61d /home/runner/work/CatSneeze_toolkit/CatSneeze_toolkit/_ti_sdk/simplelink_cc13xx_cc26xx_sdk_8_32_00_07/kernel/nortos/lib/gcc/m4f/nortos_cc13x2x7.a(SemaphoreP_nortos.c.obj)
 .debug_loclists
                0x0000000000007a65      0x8bc /home/runner/work/CatSneeze_toolkit/CatSneeze_toolkit/_ti_sdk/simplelink_cc13xx_cc26xx_sdk_8_32_00_07/kernel/nortos/lib/gcc/m4f/nortos_cc13x2x7.a(SwiP_nortos.c.obj)
 .debug_loclists
                0x0000000000008321      0xebd /home/runner/work/CatSneeze_toolkit/CatSneeze_toolkit/_ti_sdk/simplelink_cc13xx_cc26xx_sdk_8_32_00_07/kernel/nortos/lib/gcc/m4f/nortos_cc13x2x7.a(ClockPTimer_nortos.c.obj)
 .debug_loclists
                0x00000000000091de      0x21f /home/runner/work/CatSneeze_toolkit/CatSneeze_toolkit/_ti_sdk/simplelink_cc13xx_cc26xx_sdk_8_32_00_07/kernel/nortos/lib/gcc/m4f/nortos_cc13x2x7.a(QueueP_nortos.c.obj)
 .debug_loclists
                0x00000000000093fd      0x50f /home/runner/work/CatSneeze_toolkit/CatSneeze_toolkit/_ti_sdk/simplelink_cc13xx_cc26xx_sdk_8_32_00_07/kernel/nortos/lib/gcc/m4f/nortos_cc13x2x7.a(HwiPCC26XX_nortos.c.obj)
 .debug_loclists
                0x000000000000990c       0xe1 /home/runner/work/CatSneeze_toolkit/CatSneeze_toolkit/_ti_sdk/simplelink_cc13xx_cc26xx_sdk_8_32_00_07/kernel/nortos/lib/gcc/m4f/nortos_cc13x2x7.a(PowerCC26X2_nortos.c.obj)
 .debug_loclists
                0x00000000000099ed      0x7c0 /home/runner/work/CatSneeze_toolkit/CatSneeze_toolkit/_ti_sdk/simplelink_cc13xx_cc26xx_sdk_8_32_00_07/kernel/nortos/lib/gcc/m4f/nortos_cc13x2x7.a(TimerPCC26XX_nortos.c.obj)
 .debug_loclists
                0x000000000000a1ad      0x1dd /home/runner/work/CatSneeze_toolkit/CatSneeze_toolkit/_ti_sdk/simplelink_cc13xx_cc26xx_sdk_8_32_00_07/source/ti/devices/cc13x2x7_cc26x2x7/driverlib/bin/gcc/driverlib.lib(chipinfo.c.obj)
 .debug_loclists
                0x000000000000a38a       0x38 /home/runner/work/CatSneeze_toolkit/CatSneeze_toolkit/_ti_sdk/simplelink_cc13xx_cc26xx_sdk_8_32_00_07/source/ti/devices/cc13x2x7_cc26x2x7/driverlib/bin/gcc/driverlib.lib(cpu.c.obj)
 .debug_loclists
                0x000000000000a3c2      0x20e /home/runner/work/CatSneeze_toolkit/CatSneeze_toolkit/_ti_sdk/simplelink_cc13xx_cc26xx_sdk_8_32_00_07/source/ti/devices/cc13x2x7_cc26x2x7/driverlib/bin/gcc/driverlib.lib(interrupt.c.obj)
 .debug_loclists
                0x000000000000a5d0     0x1079 /home/runner/work/CatSneeze_toolkit/CatSneeze_toolkit/_ti_sdk/simplelink_cc13xx_cc26xx_sdk_8_32_00_07/source/ti/devices/cc13x2x7_cc26x2x7/driverlib/bin/gcc/driverlib.lib(osc.c.obj)
 .debug_loclists
                0x000000000000b649      0x325 /home/runner/work/CatSneeze_toolkit/CatSneeze_toolkit/_ti_sdk/simplelink_cc13xx_cc26xx_sdk_8_32_00_07/source/ti/devices/cc13x2x7_cc26x2x7/driverlib/bin/gcc/driverlib.lib(prcm.c.obj)
 .debug_loclists
                0x000000000000b96e       0xb8 /home/runner/work/CatSneeze_toolkit/CatSneeze_toolkit/_ti_sdk/simplelink_cc13xx_cc26xx_sdk_8_32_00_07/source/ti/devices/cc13x2x7_cc26x2x7/driverlib/bin/gcc/driverlib.lib(setup.c.obj)
 .debug_loclists
                0x000000000000ba26      0x16c /home/runner/work/CatSneeze_toolkit/CatSneeze_toolkit/_ti_sdk/simplelink_cc13xx_cc26xx_sdk_8_32_00_07/source/ti/devices/cc13x2x7_cc26x2x7/driverlib/bin/gcc/driverlib.lib(sys_ctrl.c.obj)
 .debug_loclists
                0x000000000000bb92       0x36 /home/runner/work/CatSneeze_toolkit/CatSneeze_toolkit/_ti_sdk/simplelink_cc13xx_cc26xx_sdk_8_32_00_07/source/ti/devices/cc13x2x7_cc26x2x7/driverlib/bin/gcc/driverlib.lib(aux_sysif.c.obj)

.debug_aranges  0x0000000000000000     0x1348
 .debug_aranges
                0x0000000000000000      0x2b8 /home/runner/work/CatSneeze_toolkit/CatSneeze_toolkit/_ti_sdk/simplelink_cc13xx_cc26xx_sdk_8_32_00_07/source/ti/drivers/rf/lib/gcc/m4f/rf_multiMode_cc13x2.a(RFCC26X2_multiMode.c.cc13x2.gcc.o)
 .debug_aranges
                0x00000000000002b8       0x58 /home/runner/work/CatSneeze_toolkit/CatSneeze_toolkit/_ti_sdk/simplelink_cc13xx_cc26xx_sdk_8_32_00_07/source/ti/drivers/rf/lib/gcc/m4f/rf_multiMode_cc13x2.a(rfc.c.cc13x2.gcc.o)
 .debug_aranges
                0x0000000000000310       0x38 /home/runner/work/CatSneeze_toolkit/CatSneeze_toolkit/_ti_sdk/simplelink_cc13xx_cc26xx_sdk_8_32_00_07/source/ti/drivers/rf/lib/gcc/m4f/rf_multiMode_cc13x2.a(rf_patch_cpe_prop.c.cc13x2.gcc.o)
 .debug_aranges
                0x0000000000000348       0x48 /home/runner/work/CatSneeze_toolkit/CatSneeze_toolkit/_ti_sdk/simplelink_cc13xx_cc26xx_sdk_8_32_00_07/source/ti/drivers/lib/gcc/m4f/drivers_cc13x2x7.a(List.c.obj)
 .debug_aranges
                0x0000000000000390      0x150 /home/runner/work/CatSneeze_toolkit/CatSneeze_toolkit/_ti_sdk/simplelink_cc13xx_cc26xx_sdk_8_32_00_07/source/ti/drivers/lib/gcc/m4f/drivers_cc13x2x7.a(PowerCC26X2.c.obj)
 .debug_aranges
                0x00000000000004e0       0x38 /home/runner/work/CatSneeze_toolkit/CatSneeze_toolkit/_ti_sdk/simplelink_cc13xx_cc26xx_sdk_8_32_00_07/source/ti/drivers/lib/gcc/m4f/drivers_cc13x2x7.a(PowerCC26X2_calibrateRCOSC.c.obj)
 .debug_aranges
                0x0000000000000518       0x80 /home/runner/work/CatSneeze_toolkit/CatSneeze_toolkit/_ti_sdk/simplelink_cc13xx_cc26xx_sdk_8_32_00_07/source/ti/drivers/lib/gcc/m4f/drivers_cc13x2x7.a(UART2.c.obj)
 .debug_aranges
                0x0000000000000598       0xc8 /home/runner/work/CatSneeze_toolkit/CatSneeze_toolkit/_ti_sdk/simplelink_cc13xx_cc26xx_sdk_8_32_00_07/source/ti/drivers/lib/gcc/m4f/drivers_cc13x2x7.a(UART2CC26X2.c.obj)
 .debug_aranges
                0x0000000000000660       0x68 /home/runner/work/CatSneeze_toolkit/CatSneeze_toolkit/_ti_sdk/simplelink_cc13xx_cc26xx_sdk_8_32_00_07/source/ti/drivers/lib/gcc/m4f/drivers_cc13x2x7.a(PowerCC26X2_calibrateRCOSC_helpers.c.obj)
 .debug_aranges
                0x00000000000006c8       0xd8 /home/runner/work/CatSneeze_toolkit/CatSneeze_toolkit/_ti_sdk/simplelink_cc13xx_cc26xx_sdk_8_32_00_07/source/ti/drivers/lib/gcc/m4f/drivers_cc13x2x7.a(PowerCC26X2_helpers.c.obj)
 .debug_aranges
                0x00000000000007a0       0x88 /home/runner/work/CatSneeze_toolkit/CatSneeze_toolkit/_ti_sdk/simplelink_cc13xx_cc26xx_sdk_8_32_00_07/source/ti/drivers/lib/gcc/m4f/drivers_cc13x2x7.a(RingBuf.c.obj)
 .debug_aranges
                0x0000000000000828       0x30 /home/runner/work/CatSneeze_toolkit/CatSneeze_toolkit/_ti_sdk/simplelink_cc13xx_cc26xx_sdk_8_32_00_07/source/ti/drivers/lib/gcc/m4f/drivers_cc13x2x7.a(UDMACC26XX.c.obj)
 .debug_aranges
                0x0000000000000858       0x70 /home/runner/work/CatSneeze_toolkit/CatSneeze_toolkit/_ti_sdk/simplelink_cc13xx_cc26xx_sdk_8_32_00_07/source/ti/drivers/lib/gcc/m4f/drivers_cc13x2x7.a(GPIOCC26XX.c.obj)
 .debug_aranges
                0x00000000000008c8       0x30 /home/runner/work/CatSneeze_toolkit/CatSneeze_toolkit/_ti_sdk/simplelink_cc13xx_cc26xx_sdk_8_32_00_07/kernel/nortos/lib/gcc/m4f/nortos_cc13x2x7.a(NoRTOS.c.obj)
 .debug_aranges
                0x00000000000008f8       0x78 /home/runner/work/CatSneeze_toolkit/CatSneeze_toolkit/_ti_sdk/simplelink_cc13xx_cc26xx_sdk_8_32_00_07/kernel/nortos/lib/gcc/m4f/nortos_cc13x2x7.a(SemaphoreP_nortos.c.obj)
 .debug_aranges
                0x0000000000000970       0xa8 /home/runner/work/CatSneeze_toolkit/CatSneeze_toolkit/_ti_sdk/simplelink_cc13xx_cc26xx_sdk_8_32_00_07/kernel/nortos/lib/gcc/m4f/nortos_cc13x2x7.a(SwiP_nortos.c.obj)
 .debug_aranges
                0x0000000000000a18      0x100 /home/runner/work/CatSneeze_toolkit/CatSneeze_toolkit/_ti_sdk/simplelink_cc13xx_cc26xx_sdk_8_32_00_07/kernel/nortos/lib/gcc/m4f/nortos_cc13x2x7.a(ClockPTimer_nortos.c.obj)
 .debug_aranges
                0x0000000000000b18       0x80 /home/runner/work/CatSneeze_toolkit/CatSneeze_toolkit/_ti_sdk/simplelink_cc13xx_cc26xx_sdk_8_32_00_07/kernel/nortos/lib/gcc/m4f/nortos_cc13x2x7.a(QueueP_nortos.c.obj)
 .debug_aranges
                0x0000000000000b98       0xb8 /home/runner/work/CatSneeze_toolkit/CatSneeze_toolkit/_ti_sdk/simplelink_cc13xx_cc26xx_sdk_8_32_00_07/kernel/nortos/lib/gcc/m4f/nortos_cc13x2x7.a(HwiPCC26XX_nortos.c.obj)
 .debug_aranges
                0x0000000000000c50       0x30 /home/runner/work/CatSneeze_toolkit/CatSneeze_toolkit/_ti_sdk/simplelink_cc13xx_cc26xx_sdk_8_32_00_07/kernel/nortos/lib/gcc/m4f/nortos_cc13x2x7.a(PowerCC26X2_nortos.c.obj)
 .debug_aranges
                0x0000000000000c80       0x80 /home/runner/work/CatSneeze_toolkit/CatSneeze_toolkit/_ti_sdk/simplelink_cc13xx_cc26xx_sdk_8_32_00_07/kernel/nortos/lib/gcc/m4f/nortos_cc13x2x7.a(TimerPCC26XX_nortos.c.obj)
 .debug_aranges
                0x0000000000000d00       0x48 /home/runner/work/CatSneeze_toolkit/CatSneeze_toolkit/_ti_sdk/simplelink_cc13xx_cc26xx_sdk_8_32_00_07/source/ti/devices/cc13x2x7_cc26x2x7/driverlib/bin/gcc/driverlib.lib(chipinfo.c.obj)
 .debug_aranges
                0x0000000000000d48       0x40 /home/runner/work/CatSneeze_toolkit/CatSneeze_toolkit/_ti_sdk/simplelink_cc13xx_cc26xx_sdk_8_32_00_07/source/ti/devices/cc13x2x7_cc26x2x7/driverlib/bin/gcc/driverlib.lib(cpu.c.obj)
 .debug_aranges
                0x0000000000000d88       0x78 /home/runner/work/CatSneeze_toolkit/CatSneeze_toolkit/_ti_sdk/simplelink_cc13xx_cc26xx_sdk_8_32_00_07/source/ti/devices/cc13x2x7_cc26x2x7/driverlib/bin/gcc/driverlib.lib(interrupt.c.obj)
 .debug_aranges
                0x0000000000000e00       0xb0 /home/runner/work/CatSneeze_toolkit/CatSneeze_toolkit/_ti_sdk/simplelink_cc13xx_cc26xx_sdk_8_32_00_07/source/ti/devices/cc13x2x7_cc26x2x7/driverlib/bin/gcc/driverlib.lib(osc.c.obj)
 .debug_aranges
                0x0000000000000eb0       0xa8 /home/runner/work/CatSneeze_toolkit/CatSneeze_toolkit/_ti_sdk/simplelink_cc13xx_cc26xx_sdk_8_32_00_07/source/ti/devices/cc13x2x7_cc26x2x7/driverlib/bin/gcc/driverlib.lib(prcm.c.obj)
 .debug_aranges
                0x0000000000000f58       0x28 /home/runner/work/CatSneeze_toolkit/CatSneeze_toolkit/_ti_sdk/simplelink_cc13xx_cc26xx_sdk_8_32_00_07/source/ti/devices/cc13x2x7_cc26x2x7/driverlib/bin/gcc/driverlib.lib(setup.c.obj)
 .debug_aranges
                0x0000000000000f80       0x58 /home/runner/work/CatSneeze_toolkit/CatSneeze_toolkit/_ti_sdk/simplelink_cc13xx_cc26xx_sdk_8_32_00_07/source/ti/devices/cc13x2x7_cc26x2x7/driverlib/bin/gcc/driverlib.lib(sys_ctrl.c.obj)
 .debug_aranges
                0x0000000000000fd8       0x20 /home/runner/work/CatSneeze_toolkit/CatSneeze_toolkit/_ti_sdk/simplelink_cc13xx_cc26xx_sdk_8_32_00_07/source/ti/devices/cc13x2x7_cc26x2x7/driverlib/bin/gcc/driverlib.lib(aux_sysif.c.obj)
 .debug_aranges
                0x0000000000000ff8       0x20 /usr/lib/gcc/arm-none-eabi/10.3.1/thumb/v7e-m+fp/hard/libgcc.a(_aeabi_uldivmod.o)
 .debug_aranges
                0x0000000000001018       0x20 /usr/lib/gcc/arm-none-eabi/10.3.1/thumb/v7e-m+fp/hard/libgcc.a(_udivmoddi4.o)
 .debug_aranges
                0x0000000000001038       0x20 /usr/lib/gcc/arm-none-eabi/10.3.1/thumb/v7e-m+fp/hard/libgcc.a(_dvmd_tls.o)
 .debug_aranges
                0x0000000000001058       0x20 /usr/lib/gcc/arm-none-eabi/10.3.1/../../../arm-none-eabi/lib/thumb/v7e-m+fp/hard/libc_nano.a(lib_a-atoi.o)
 .debug_aranges
                0x0000000000001078       0x18 /usr/lib/gcc/arm-none-eabi/10.3.1/../../../arm-none-eabi/lib/thumb/v7e-m+fp/hard/libc_nano.a(lib_a-ctype_.o)
 .debug_aranges
                0x0000000000001090       0x20 /usr/lib/gcc/arm-none-eabi/10.3.1/../../../arm-none-eabi/lib/thumb/v7e-m+fp/hard/libc_nano.a(lib_a-memcpy.o)
 .debug_aranges
                0x00000000000010b0       0x20 /usr/lib/gcc/arm-none-eabi/10.3.1/../../../arm-none-eabi/lib/thumb/v7e-m+fp/hard/libc_nano.a(lib_a-memset.o)
 .debug_aranges
                0x00000000000010d0       0x20 /usr/lib/gcc/arm-none-eabi/10.3.1/../../../arm-none-eabi/lib/thumb/v7e-m+fp/hard/libc_nano.a(lib_a-nano-freer.o)
 .debug_aranges
                0x00000000000010f0       0x20 /usr/lib/gcc/arm-none-eabi/10.3.1/../../../arm-none-eabi/lib/thumb/v7e-m+fp/hard/libc_nano.a(lib_a-nano-mallocr.o)
 .debug_aranges
                0x0000000000001110       0x20 /usr/lib/gcc/arm-none-eabi/10.3.1/../../../arm-none-eabi/lib/thumb/v7e-m+fp/hard/libc_nano.a(lib_a-sbrkr.o)
 .debug_aranges
                0x0000000000001130       0x20 /usr/lib/gcc/arm-none-eabi/10.3.1/../../../arm-none-eabi/lib/thumb/v7e-m+fp/hard/libc_nano.a(lib_a-strchr.o)
 .debug_aranges
                0x0000000000001150       0x20 /usr/lib/gcc/arm-none-eabi/10.3.1/../../../arm-none-eabi/lib/thumb/v7e-m+fp/hard/libc_nano.a(lib_a-strcmp.o)
 .debug_aranges
                0x0000000000001170       0x20 /usr/lib/gcc/arm-none-eabi/10.3.1/../../../arm-none-eabi/lib/thumb/v7e-m+fp/hard/libc_nano.a(lib_a-strlen.o)
 .debug_aranges
                0x0000000000001190       0x20 /usr/lib/gcc/arm-none-eabi/10.3.1/../../../arm-none-eabi/lib/thumb/v7e-m+fp/hard/libc_nano.a(lib_a-strncmp.o)
 .debug_aranges
                0x00000000000011b0       0x20 /usr/lib/gcc/arm-none-eabi/10.3.1/../../../arm-none-eabi/lib/thumb/v7e-m+fp/hard/libc_nano.a(lib_a-strtol.o)
 .debug_aranges
                0x00000000000011d0       0x20 /usr/lib/gcc/arm-none-eabi/10.3.1/../../../arm-none-eabi/lib/thumb/v7e-m+fp/hard/libc_nano.a(lib_a-vsnprintf.o)
 .debug_aranges
                0x00000000000011f0       0x20 /usr/lib/gcc/arm-none-eabi/10.3.1/../../../arm-none-eabi/lib/thumb/v7e-m+fp/hard/libc_nano.a(lib_a-errno.o)
 .debug_aranges
                0x0000000000001210       0x18 /usr/lib/gcc/arm-none-eabi/10.3.1/../../../arm-none-eabi/lib/thumb/v7e-m+fp/hard/libc_nano.a(lib_a-impure.o)
 .debug_aranges
                0x0000000000001228       0x20 /usr/lib/gcc/arm-none-eabi/10.3.1/../../../arm-none-eabi/lib/thumb/v7e-m+fp/hard/libc_nano.a(lib_a-mlock.o)
 .debug_aranges
                0x0000000000001248       0x20 /usr/lib/gcc/arm-none-eabi/10.3.1/../../../arm-none-eabi/lib/thumb/v7e-m+fp/hard/libc_nano.a(lib_a-nano-svfprintf.o)
 .debug_aranges
                0x0000000000001268       0x20 /usr/lib/gcc/arm-none-eabi/10.3.1/../../../arm-none-eabi/lib/thumb/v7e-m+fp/hard/libc_nano.a(lib_a-nano-vfprintf_i.o)
 .debug_aranges
                0x0000000000001288       0x20 /usr/lib/gcc/arm-none-eabi/10.3.1/../../../arm-none-eabi/lib/thumb/v7e-m+fp/hard/libc_nano.a(lib_a-reent.o)
 .debug_aranges
                0x00000000000012a8       0x20 /usr/lib/gcc/arm-none-eabi/10.3.1/../../../arm-none-eabi/lib/thumb/v7e-m+fp/hard/libc_nano.a(lib_a-memchr.o)
 .debug_aranges
                0x00000000000012c8       0x20 /usr/lib/gcc/arm-none-eabi/10.3.1/../../../arm-none-eabi/lib/thumb/v7e-m+fp/hard/libc_nano.a(lib_a-memmove.o)
 .debug_aranges
                0x00000000000012e8       0x20 /usr/lib/gcc/arm-none-eabi/10.3.1/../../../arm-none-eabi/lib/thumb/v7e-m+fp/hard/libc_nano.a(lib_a-nano-reallocr.o)
 .debug_aranges
                0x0000000000001308       0x20 /usr/lib/gcc/arm-none-eabi/10.3.1/../../../arm-none-eabi/lib/thumb/v7e-m+fp/hard/libc_nano.a(lib_a-nano-msizer.o)
 .debug_aranges
                0x0000000000001328       0x20 /usr/lib/gcc/arm-none-eabi/10.3.1/../../../arm-none-eabi/lib/thumb/v7e-m+fp/hard/libnosys.a(sbrk.o)

.debug_rnglists
                0x0000000000000000     0x20d8
 .debug_rnglists
                0x0000000000000000      0x6b6 /home/runner/work/CatSneeze_toolkit/CatSneeze_toolkit/_ti_sdk/simplelink_cc13xx_cc26xx_sdk_8_32_00_07/source/ti/drivers/rf/lib/gcc/m4f/rf_multiMode_cc13x2.a(RFCC26X2_multiMode.c.cc13x2.gcc.o)
 .debug_rnglists
                0x00000000000006b6       0x3d /home/runner/work/CatSneeze_toolkit/CatSneeze_toolkit/_ti_sdk/simplelink_cc13xx_cc26xx_sdk_8_32_00_07/source/ti/drivers/rf/lib/gcc/m4f/rf_multiMode_cc13x2.a(rfc.c.cc13x2.gcc.o)
 .debug_rnglists
                0x00000000000006f3       0x34 /home/runner/work/CatSneeze_toolkit/CatSneeze_toolkit/_ti_sdk/simplelink_cc13xx_cc26xx_sdk_8_32_00_07/source/ti/drivers/rf/lib/gcc/m4f/rf_multiMode_cc13x2.a(rf_patch_cpe_prop.c.cc13x2.gcc.o)
 .debug_rnglists
                0x0000000000000727       0x31 /home/runner/work/CatSneeze_toolkit/CatSneeze_toolkit/_ti_sdk/simplelink_cc13xx_cc26xx_sdk_8_32_00_07/source/ti/drivers/lib/gcc/m4f/drivers_cc13x2x7.a(List.c.obj)
 .debug_rnglists
                0x0000000000000758      0x274 /home/runner/work/CatSneeze_toolkit/CatSneeze_toolkit/_ti_sdk/simplelink_cc13xx_cc26xx_sdk_8_32_00_07/source/ti/drivers/lib/gcc/m4f/drivers_cc13x2x7.a(PowerCC26X2.c.obj)
 .debug_rnglists
                0x00000000000009cc       0xb2 /home/runner/work/CatSneeze_toolkit/CatSneeze_toolkit/_ti_sdk/simplelink_cc13xx_cc26xx_sdk_8_32_00_07/source/ti/drivers/lib/gcc/m4f/drivers_cc13x2x7.a(PowerCC26X2_calibrateRCOSC.c.obj)
 .debug_rnglists
                0x0000000000000a7e       0x5f /home/runner/work/CatSneeze_toolkit/CatSneeze_toolkit/_ti_sdk/simplelink_cc13xx_cc26xx_sdk_8_32_00_07/source/ti/drivers/lib/gcc/m4f/drivers_cc13x2x7.a(UART2.c.obj)
 .debug_rnglists
                0x0000000000000add      0x2d3 /home/runner/work/CatSneeze_toolkit/CatSneeze_toolkit/_ti_sdk/simplelink_cc13xx_cc26xx_sdk_8_32_00_07/source/ti/drivers/lib/gcc/m4f/drivers_cc13x2x7.a(UART2CC26X2.c.obj)
 .debug_rnglists
                0x0000000000000db0       0x62 /home/runner/work/CatSneeze_toolkit/CatSneeze_toolkit/_ti_sdk/simplelink_cc13xx_cc26xx_sdk_8_32_00_07/source/ti/drivers/lib/gcc/m4f/drivers_cc13x2x7.a(PowerCC26X2_calibrateRCOSC_helpers.c.obj)
 .debug_rnglists
                0x0000000000000e12       0xe5 /home/runner/work/CatSneeze_toolkit/CatSneeze_toolkit/_ti_sdk/simplelink_cc13xx_cc26xx_sdk_8_32_00_07/source/ti/drivers/lib/gcc/m4f/drivers_cc13x2x7.a(PowerCC26X2_helpers.c.obj)
 .debug_rnglists
                0x0000000000000ef7       0x70 /home/runner/work/CatSneeze_toolkit/CatSneeze_toolkit/_ti_sdk/simplelink_cc13xx_cc26xx_sdk_8_32_00_07/source/ti/drivers/lib/gcc/m4f/drivers_cc13x2x7.a(RingBuf.c.obj)
 .debug_rnglists
                0x0000000000000f67       0x58 /home/runner/work/CatSneeze_toolkit/CatSneeze_toolkit/_ti_sdk/simplelink_cc13xx_cc26xx_sdk_8_32_00_07/source/ti/drivers/lib/gcc/m4f/drivers_cc13x2x7.a(UDMACC26XX.c.obj)
 .debug_rnglists
                0x0000000000000fbf       0xa8 /home/runner/work/CatSneeze_toolkit/CatSneeze_toolkit/_ti_sdk/simplelink_cc13xx_cc26xx_sdk_8_32_00_07/source/ti/drivers/lib/gcc/m4f/drivers_cc13x2x7.a(GPIOCC26XX.c.obj)
 .debug_rnglists
                0x0000000000001067       0x1f /home/runner/work/CatSneeze_toolkit/CatSneeze_toolkit/_ti_sdk/simplelink_cc13xx_cc26xx_sdk_8_32_00_07/kernel/nortos/lib/gcc/m4f/nortos_cc13x2x7.a(NoRTOS.c.obj)
 .debug_rnglists
                0x0000000000001086      0x143 /home/runner/work/CatSneeze_toolkit/CatSneeze_toolkit/_ti_sdk/simplelink_cc13xx_cc26xx_sdk_8_32_00_07/kernel/nortos/lib/gcc/m4f/nortos_cc13x2x7.a(SemaphoreP_nortos.c.obj)
 .debug_rnglists
                0x00000000000011c9       0xf6 /home/runner/work/CatSneeze_toolkit/CatSneeze_toolkit/_ti_sdk/simplelink_cc13xx_cc26xx_sdk_8_32_00_07/kernel/nortos/lib/gcc/m4f/nortos_cc13x2x7.a(SwiP_nortos.c.obj)
 .debug_rnglists
                0x00000000000012bf      0x1b0 /home/runner/work/CatSneeze_toolkit/CatSneeze_toolkit/_ti_sdk/simplelink_cc13xx_cc26xx_sdk_8_32_00_07/kernel/nortos/lib/gcc/m4f/nortos_cc13x2x7.a(ClockPTimer_nortos.c.obj)
 .debug_rnglists
                0x000000000000146f       0x67 /home/runner/work/CatSneeze_toolkit/CatSneeze_toolkit/_ti_sdk/simplelink_cc13xx_cc26xx_sdk_8_32_00_07/kernel/nortos/lib/gcc/m4f/nortos_cc13x2x7.a(QueueP_nortos.c.obj)
 .debug_rnglists
                0x00000000000014d6       0xd9 /home/runner/work/CatSneeze_toolkit/CatSneeze_toolkit/_ti_sdk/simplelink_cc13xx_cc26xx_sdk_8_32_00_07/kernel/nortos/lib/gcc/m4f/nortos_cc13x2x7.a(HwiPCC26XX_nortos.c.obj)
 .debug_rnglists
                0x00000000000015af       0x2e /home/runner/work/CatSneeze_toolkit/CatSneeze_toolkit/_ti_sdk/simplelink_cc13xx_cc26xx_sdk_8_32_00_07/kernel/nortos/lib/gcc/m4f/nortos_cc13x2x7.a(PowerCC26X2_nortos.c.obj)
 .debug_rnglists
                0x00000000000015dd      0x1b0 /home/runner/work/CatSneeze_toolkit/CatSneeze_toolkit/_ti_sdk/simplelink_cc13xx_cc26xx_sdk_8_32_00_07/kernel/nortos/lib/gcc/m4f/nortos_cc13x2x7.a(TimerPCC26XX_nortos.c.obj)
 .debug_rnglists
                0x000000000000178d       0x79 /home/runner/work/CatSneeze_toolkit/CatSneeze_toolkit/_ti_sdk/simplelink_cc13xx_cc26xx_sdk_8_32_00_07/source/ti/devices/cc13x2x7_cc26x2x7/driverlib/bin/gcc/driverlib.lib(chipinfo.c.obj)
 .debug_rnglists
                0x0000000000001806       0x2b /home/runner/work/CatSneeze_toolkit/CatSneeze_toolkit/_ti_sdk/simplelink_cc13xx_cc26xx_sdk_8_32_00_07/source/ti/devices/cc13x2x7_cc26x2x7/driverlib/bin/gcc/driverlib.lib(cpu.c.obj)
 .debug_rnglists
                0x0000000000001831       0x57 /home/runner/work/CatSneeze_toolkit/CatSneeze_toolkit/_ti_sdk/simplelink_cc13xx_cc26xx_sdk_8_32_00_07/source/ti/devices/cc13x2x7_cc26x2x7/driverlib/bin/gcc/driverlib.lib(interrupt.c.obj)
 .debug_rnglists
                0x0000000000001888      0x64e /home/runner/work/CatSneeze_toolkit/CatSneeze_toolkit/_ti_sdk/simplelink_cc13xx_cc26xx_sdk_8_32_00_07/source/ti/devices/cc13x2x7_cc26x2x7/driverlib/bin/gcc/driverlib.lib(osc.c.obj)
 .debug_rnglists
                0x0000000000001ed6       0xa3 /home/runner/work/CatSneeze_toolkit/CatSneeze_toolkit/_ti_sdk/simplelink_cc13xx_cc26xx_sdk_8_32_00_07/source/ti/devices/cc13x2x7_cc26x2x7/driverlib/bin/gcc/driverlib.lib(prcm.c.obj)
 .debug_rnglists
                0x0000000000001f79       0x69 /home/runner/work/CatSneeze_toolkit/CatSneeze_toolkit/_ti_sdk/simplelink_cc13xx_cc26xx_sdk_8_32_00_07/source/ti/devices/cc13x2x7_cc26x2x7/driverlib/bin/gcc/driverlib.lib(setup.c.obj)
 .debug_rnglists
                0x0000000000001fe2       0xe3 /home/runner/work/CatSneeze_toolkit/CatSneeze_toolkit/_ti_sdk/simplelink_cc13xx_cc26xx_sdk_8_32_00_07/source/ti/devices/cc13x2x7_cc26x2x7/driverlib/bin/gcc/driverlib.lib(sys_ctrl.c.obj)
 .debug_rnglists
                0x00000000000020c5       0x13 /home/runner/work/CatSneeze_toolkit/CatSneeze_toolkit/_ti_sdk/simplelink_cc13xx_cc26xx_sdk_8_32_00_07/source/ti/devices/cc13x2x7_cc26x2x7/driverlib/bin/gcc/driverlib.lib(aux_sysif.c.obj)

.debug_line     0x0000000000000000    0x1a387
 .debug_line    0x0000000000000000     0x4847 /home/runner/work/CatSneeze_toolkit/CatSneeze_toolkit/_ti_sdk/simplelink_cc13xx_cc26xx_sdk_8_32_00_07/source/ti/drivers/rf/lib/gcc/m4f/rf_multiMode_cc13x2.a(RFCC26X2_multiMode.c.cc13x2.gcc.o)
 .debug_line    0x0000000000004847      0x49b /home/runner/work/CatSneeze_toolkit/CatSneeze_toolkit/_ti_sdk/simplelink_cc13xx_cc26xx_sdk_8_32_00_07/source/ti/drivers/rf/lib/gcc/m4f/rf_multiMode_cc13x2.a(rfc.c.cc13x2.gcc.o)
 .debug_line    0x0000000000004ce2      0x455 /home/runner/work/CatSneeze_toolkit/CatSneeze_toolkit/_ti_sdk/simplelink_cc13xx_cc26xx_sdk_8_32_00_07/source/ti/drivers/rf/lib/gcc/m4f/rf_multiMode_cc13x2.a(rf_patch_cpe_prop.c.cc13x2.gcc.o)
 .debug_line    0x0000000000005137      0x52d /home/runner/work/CatSneeze_toolkit/CatSneeze_toolkit/_ti_sdk/simplelink_cc13xx_cc26xx_sdk_8_32_00_07/source/ti/drivers/lib/gcc/m4f/drivers_cc13x2x7.a(List.c.obj)
 .debug_line    0x0000000000005664     0x1e6a /home/runner/work/CatSneeze_toolkit/CatSneeze_toolkit/_ti_sdk/simplelink_cc13xx_cc26xx_sdk_8_32_00_07/source/ti/drivers/lib/gcc/m4f/drivers_cc13x2x7.a(PowerCC26X2.c.obj)
 .debug_line    0x00000000000074ce      0xc8b /home/runner/work/CatSneeze_toolkit/CatSneeze_toolkit/_ti_sdk/simplelink_cc13xx_cc26xx_sdk_8_32_00_07/source/ti/drivers/lib/gcc/m4f/drivers_cc13x2x7.a(PowerCC26X2_calibrateRCOSC.c.obj)
 .debug_line    0x0000000000008159      0xfa7 /home/runner/work/CatSneeze_toolkit/CatSneeze_toolkit/_ti_sdk/simplelink_cc13xx_cc26xx_sdk_8_32_00_07/source/ti/drivers/lib/gcc/m4f/drivers_cc13x2x7.a(UART2.c.obj)
 .debug_line    0x0000000000009100     0x1cad /home/runner/work/CatSneeze_toolkit/CatSneeze_toolkit/_ti_sdk/simplelink_cc13xx_cc26xx_sdk_8_32_00_07/source/ti/drivers/lib/gcc/m4f/drivers_cc13x2x7.a(UART2CC26X2.c.obj)
 .debug_line    0x000000000000adad      0x5a8 /home/runner/work/CatSneeze_toolkit/CatSneeze_toolkit/_ti_sdk/simplelink_cc13xx_cc26xx_sdk_8_32_00_07/source/ti/drivers/lib/gcc/m4f/drivers_cc13x2x7.a(PowerCC26X2_calibrateRCOSC_helpers.c.obj)
 .debug_line    0x000000000000b355      0x780 /home/runner/work/CatSneeze_toolkit/CatSneeze_toolkit/_ti_sdk/simplelink_cc13xx_cc26xx_sdk_8_32_00_07/source/ti/drivers/lib/gcc/m4f/drivers_cc13x2x7.a(PowerCC26X2_helpers.c.obj)
 .debug_line    0x000000000000bad5      0x823 /home/runner/work/CatSneeze_toolkit/CatSneeze_toolkit/_ti_sdk/simplelink_cc13xx_cc26xx_sdk_8_32_00_07/source/ti/drivers/lib/gcc/m4f/drivers_cc13x2x7.a(RingBuf.c.obj)
 .debug_line    0x000000000000c2f8      0x7e1 /home/runner/work/CatSneeze_toolkit/CatSneeze_toolkit/_ti_sdk/simplelink_cc13xx_cc26xx_sdk_8_32_00_07/source/ti/drivers/lib/gcc/m4f/drivers_cc13x2x7.a(UDMACC26XX.c.obj)
 .debug_line    0x000000000000cad9      0xa80 /home/runner/work/CatSneeze_toolkit/CatSneeze_toolkit/_ti_sdk/simplelink_cc13xx_cc26xx_sdk_8_32_00_07/source/ti/drivers/lib/gcc/m4f/drivers_cc13x2x7.a(GPIOCC26XX.c.obj)
 .debug_line    0x000000000000d559      0x37c /home/runner/work/CatSneeze_toolkit/CatSneeze_toolkit/_ti_sdk/simplelink_cc13xx_cc26xx_sdk_8_32_00_07/kernel/nortos/lib/gcc/m4f/nortos_cc13x2x7.a(NoRTOS.c.obj)
 .debug_line    0x000000000000d8d5      0xbae /home/runner/work/CatSneeze_toolkit/CatSneeze_toolkit/_ti_sdk/simplelink_cc13xx_cc26xx_sdk_8_32_00_07/kernel/nortos/lib/gcc/m4f/nortos_cc13x2x7.a(SemaphoreP_nortos.c.obj)
 .debug_line    0x000000000000e483      0xd3c /home/runner/work/CatSneeze_toolkit/CatSneeze_toolkit/_ti_sdk/simplelink_cc13xx_cc26xx_sdk_8_32_00_07/kernel/nortos/lib/gcc/m4f/nortos_cc13x2x7.a(SwiP_nortos.c.obj)
 .debug_line    0x000000000000f1bf     0x11b0 /home/runner/work/CatSneeze_toolkit/CatSneeze_toolkit/_ti_sdk/simplelink_cc13xx_cc26xx_sdk_8_32_00_07/kernel/nortos/lib/gcc/m4f/nortos_cc13x2x7.a(ClockPTimer_nortos.c.obj)
 .debug_line    0x000000000001036f      0x591 /home/runner/work/CatSneeze_toolkit/CatSneeze_toolkit/_ti_sdk/simplelink_cc13xx_cc26xx_sdk_8_32_00_07/kernel/nortos/lib/gcc/m4f/nortos_cc13x2x7.a(QueueP_nortos.c.obj)
 .debug_line    0x0000000000010900      0x9eb /home/runner/work/CatSneeze_toolkit/CatSneeze_toolkit/_ti_sdk/simplelink_cc13xx_cc26xx_sdk_8_32_00_07/kernel/nortos/lib/gcc/m4f/nortos_cc13x2x7.a(HwiPCC26XX_nortos.c.obj)
 .debug_line    0x00000000000112eb      0x8b6 /home/runner/work/CatSneeze_toolkit/CatSneeze_toolkit/_ti_sdk/simplelink_cc13xx_cc26xx_sdk_8_32_00_07/kernel/nortos/lib/gcc/m4f/nortos_cc13x2x7.a(PowerCC26X2_nortos.c.obj)
 .debug_line    0x0000000000011ba1      0xe26 /home/runner/work/CatSneeze_toolkit/CatSneeze_toolkit/_ti_sdk/simplelink_cc13xx_cc26xx_sdk_8_32_00_07/kernel/nortos/lib/gcc/m4f/nortos_cc13x2x7.a(TimerPCC26XX_nortos.c.obj)
 .debug_line    0x00000000000129c7      0x4d8 /home/runner/work/CatSneeze_toolkit/CatSneeze_toolkit/_ti_sdk/simplelink_cc13xx_cc26xx_sdk_8_32_00_07/source/ti/devices/cc13x2x7_cc26x2x7/driverlib/bin/gcc/driverlib.lib(chipinfo.c.obj)
 .debug_line    0x0000000000012e9f      0x2c7 /home/runner/work/CatSneeze_toolkit/CatSneeze_toolkit/_ti_sdk/simplelink_cc13xx_cc26xx_sdk_8_32_00_07/source/ti/devices/cc13x2x7_cc26x2x7/driverlib/bin/gcc/driverlib.lib(cpu.c.obj)
 .debug_line    0x0000000000013166      0x682 /home/runner/work/CatSneeze_toolkit/CatSneeze_toolkit/_ti_sdk/simplelink_cc13xx_cc26xx_sdk_8_32_00_07/source/ti/devices/cc13x2x7_cc26x2x7/driverlib/bin/gcc/driverlib.lib(interrupt.c.obj)
 .debug_line    0x00000000000137e8     0x19d5 /home/runner/work/CatSneeze_toolkit/CatSneeze_toolkit/_ti_sdk/simplelink_cc13xx_cc26xx_sdk_8_32_00_07/source/ti/devices/cc13x2x7_cc26x2x7/driverlib/bin/gcc/driverlib.lib(osc.c.obj)
 .debug_line    0x00000000000151bd      0x831 /home/runner/work/CatSneeze_toolkit/CatSneeze_toolkit/_ti_sdk/simplelink_cc13xx_cc26xx_sdk_8_32_00_07/source/ti/devices/cc13x2x7_cc26x2x7/driverlib/bin/gcc/driverlib.lib(prcm.c.obj)
 .debug_line    0x00000000000159ee      0x4d3 /home/runner/work/CatSneeze_toolkit/CatSneeze_toolkit/_ti_sdk/simplelink_cc13xx_cc26xx_sdk_8_32_00_07/source/ti/devices/cc13x2x7_cc26x2x7/driverlib/bin/gcc/driverlib.lib(setup.c.obj)
 .debug_line    0x0000000000015ec1      0x7d1 /home/runner/work/CatSneeze_toolkit/CatSneeze_toolkit/_ti_sdk/simplelink_cc13xx_cc26xx_sdk_8_32_00_07/source/ti/devices/cc13x2x7_cc26x2x7/driverlib/bin/gcc/driverlib.lib(sys_ctrl.c.obj)
 .debug_line    0x0000000000016692      0x2d2 /home/runner/work/CatSneeze_toolkit/CatSneeze_toolkit/_ti_sdk/simplelink_cc13xx_cc26xx_sdk_8_32_00_07/source/ti/devices/cc13x2x7_cc26x2x7/driverlib/bin/gcc/driverlib.lib(aux_sysif.c.obj)
 .debug_line    0x0000000000016964       0x60 /usr/lib/gcc/arm-none-eabi/10.3.1/thumb/v7e-m+fp/hard/libgcc.a(_aeabi_uldivmod.o)
 .debug_line    0x00000000000169c4      0x5ae /usr/lib/gcc/arm-none-eabi/10.3.1/thumb/v7e-m+fp/hard/libgcc.a(_udivmoddi4.o)
 .debug_line    0x0000000000016f72       0x60 /usr/lib/gcc/arm-none-eabi/10.3.1/thumb/v7e-m+fp/hard/libgcc.a(_dvmd_tls.o)
 .debug_line    0x0000000000016fd2      0x14f /usr/lib/gcc/arm-none-eabi/10.3.1/../../../arm-none-eabi/lib/thumb/v7e-m+fp/hard/libc_nano.a(lib_a-atoi.o)
 .debug_line    0x0000000000017121       0x5e /usr/lib/gcc/arm-none-eabi/10.3.1/../../../arm-none-eabi/lib/thumb/v7e-m+fp/hard/libc_nano.a(lib_a-ctype_.o)
 .debug_line    0x000000000001717f       0xbe /usr/lib/gcc/arm-none-eabi/10.3.1/../../../arm-none-eabi/lib/thumb/v7e-m+fp/hard/libc_nano.a(lib_a-memcpy.o)
 .debug_line    0x000000000001723d      0x1bf /usr/lib/gcc/arm-none-eabi/10.3.1/../../../arm-none-eabi/lib/thumb/v7e-m+fp/hard/libc_nano.a(lib_a-memset.o)
 .debug_line    0x00000000000173fc      0x2ca /usr/lib/gcc/arm-none-eabi/10.3.1/../../../arm-none-eabi/lib/thumb/v7e-m+fp/hard/libc_nano.a(lib_a-nano-freer.o)
 .debug_line    0x00000000000176c6      0x2d0 /usr/lib/gcc/arm-none-eabi/10.3.1/../../../arm-none-eabi/lib/thumb/v7e-m+fp/hard/libc_nano.a(lib_a-nano-mallocr.o)
 .debug_line    0x0000000000017996      0x183 /usr/lib/gcc/arm-none-eabi/10.3.1/../../../arm-none-eabi/lib/thumb/v7e-m+fp/hard/libc_nano.a(lib_a-sbrkr.o)
 .debug_line    0x0000000000017b19      0x1b0 /usr/lib/gcc/arm-none-eabi/10.3.1/../../../arm-none-eabi/lib/thumb/v7e-m+fp/hard/libc_nano.a(lib_a-strchr.o)
 .debug_line    0x0000000000017cc9      0x137 /usr/lib/gcc/arm-none-eabi/10.3.1/../../../arm-none-eabi/lib/thumb/v7e-m+fp/hard/libc_nano.a(lib_a-strcmp.o)
 .debug_line    0x0000000000017e00       0xaf /usr/lib/gcc/arm-none-eabi/10.3.1/../../../arm-none-eabi/lib/thumb/v7e-m+fp/hard/libc_nano.a(lib_a-strlen.o)
 .debug_line    0x0000000000017eaf      0x1e8 /usr/lib/gcc/arm-none-eabi/10.3.1/../../../arm-none-eabi/lib/thumb/v7e-m+fp/hard/libc_nano.a(lib_a-strncmp.o)
 .debug_line    0x0000000000018097      0x41d /usr/lib/gcc/arm-none-eabi/10.3.1/../../../arm-none-eabi/lib/thumb/v7e-m+fp/hard/libc_nano.a(lib_a-strtol.o)
 .debug_line    0x00000000000184b4      0x331 /usr/lib/gcc/arm-none-eabi/10.3.1/../../../arm-none-eabi/lib/thumb/v7e-m+fp/hard/libc_nano.a(lib_a-vsnprintf.o)
 .debug_line    0x00000000000187e5      0x109 /usr/lib/gcc/arm-none-eabi/10.3.1/../../../arm-none-eabi/lib/thumb/v7e-m+fp/hard/libc_nano.a(lib_a-errno.o)
 .debug_line    0x00000000000188ee       0xe4 /usr/lib/gcc/arm-none-eabi/10.3.1/../../../arm-none-eabi/lib/thumb/v7e-m+fp/hard/libc_nano.a(lib_a-impure.o)
 .debug_line    0x00000000000189d2      0x13e /usr/lib/gcc/arm-none-eabi/10.3.1/../../../arm-none-eabi/lib/thumb/v7e-m+fp/hard/libc_nano.a(lib_a-mlock.o)
 .debug_line    0x0000000000018b10      0x83a /usr/lib/gcc/arm-none-eabi/10.3.1/../../../arm-none-eabi/lib/thumb/v7e-m+fp/hard/libc_nano.a(lib_a-nano-svfprintf.o)
 .debug_line    0x000000000001934a      0x746 /usr/lib/gcc/arm-none-eabi/10.3.1/../../../arm-none-eabi/lib/thumb/v7e-m+fp/hard/libc_nano.a(lib_a-nano-vfprintf_i.o)
 .debug_line    0x0000000000019a90      0x2c7 /usr/lib/gcc/arm-none-eabi/10.3.1/../../../arm-none-eabi/lib/thumb/v7e-m+fp/hard/libc_nano.a(lib_a-reent.o)
 .debug_line    0x0000000000019d57       0xa4 /usr/lib/gcc/arm-none-eabi/10.3.1/../../../arm-none-eabi/lib/thumb/v7e-m+fp/hard/libc_nano.a(lib_a-memchr.o)
 .debug_line    0x0000000000019dfb      0x1ee /usr/lib/gcc/arm-none-eabi/10.3.1/../../../arm-none-eabi/lib/thumb/v7e-m+fp/hard/libc_nano.a(lib_a-memmove.o)
 .debug_line    0x0000000000019fe9      0x1c5 /usr/lib/gcc/arm-none-eabi/10.3.1/../../../arm-none-eabi/lib/thumb/v7e-m+fp/hard/libc_nano.a(lib_a-nano-reallocr.o)
 .debug_line    0x000000000001a1ae      0x160 /usr/lib/gcc/arm-none-eabi/10.3.1/../../../arm-none-eabi/lib/thumb/v7e-m+fp/hard/libc_nano.a(lib_a-nano-msizer.o)
 .debug_line    0x000000000001a30e       0x79 /usr/lib/gcc/arm-none-eabi/10.3.1/../../../arm-none-eabi/lib/thumb/v7e-m+fp/hard/libnosys.a(sbrk.o)

.debug_str      0x0000000000000000     0xa96a
 .debug_str     0x0000000000000000     0x347c /home/runner/work/CatSneeze_toolkit/CatSneeze_toolkit/_ti_sdk/simplelink_cc13xx_cc26xx_sdk_8_32_00_07/source/ti/drivers/rf/lib/gcc/m4f/rf_multiMode_cc13x2.a(RFCC26X2_multiMode.c.cc13x2.gcc.o)
                                       0x35e3 (size before relaxing)
 .debug_str     0x000000000000347c      0x128 /home/runner/work/CatSneeze_toolkit/CatSneeze_toolkit/_ti_sdk/simplelink_cc13xx_cc26xx_sdk_8_32_00_07/source/ti/drivers/rf/lib/gcc/m4f/rf_multiMode_cc13x2.a(rfc.c.cc13x2.gcc.o)
                                        0x4d3 (size before relaxing)
 .debug_str     0x00000000000035a4      0x187 /home/runner/work/CatSneeze_toolkit/CatSneeze_toolkit/_ti_sdk/simplelink_cc13xx_cc26xx_sdk_8_32_00_07/source/ti/drivers/rf/lib/gcc/m4f/rf_multiMode_cc13x2.a(rf_patch_cpe_prop.c.cc13x2.gcc.o)
                                        0x382 (size before relaxing)
 .debug_str     0x000000000000372b      0x237 /home/runner/work/CatSneeze_toolkit/CatSneeze_toolkit/_ti_sdk/simplelink_cc13xx_cc26xx_sdk_8_32_00_07/source/ti/drivers/lib/gcc/m4f/drivers_cc13x2x7.a(List.c.obj)
                                        0x385 (size before relaxing)
 .debug_str     0x0000000000003962      0xd44 /home/runner/work/CatSneeze_toolkit/CatSneeze_toolkit/_ti_sdk/simplelink_cc13xx_cc26xx_sdk_8_32_00_07/source/ti/drivers/lib/gcc/m4f/drivers_cc13x2x7.a(PowerCC26X2.c.obj)
                                       0x13fe (size before relaxing)
 .debug_str     0x00000000000046a6      0x2cf /home/runner/work/CatSneeze_toolkit/CatSneeze_toolkit/_ti_sdk/simplelink_cc13xx_cc26xx_sdk_8_32_00_07/source/ti/drivers/lib/gcc/m4f/drivers_cc13x2x7.a(PowerCC26X2_calibrateRCOSC.c.obj)
                                        0x9b9 (size before relaxing)
 .debug_str     0x0000000000004975      0x865 /home/runner/work/CatSneeze_toolkit/CatSneeze_toolkit/_ti_sdk/simplelink_cc13xx_cc26xx_sdk_8_32_00_07/source/ti/drivers/lib/gcc/m4f/drivers_cc13x2x7.a(UART2.c.obj)
                                        0xbf4 (size before relaxing)
 .debug_str     0x00000000000051da      0x798 /home/runner/work/CatSneeze_toolkit/CatSneeze_toolkit/_ti_sdk/simplelink_cc13xx_cc26xx_sdk_8_32_00_07/source/ti/drivers/lib/gcc/m4f/drivers_cc13x2x7.a(UART2CC26X2.c.obj)
                                       0x1307 (size before relaxing)
 .debug_str     0x0000000000005972      0x14f /home/runner/work/CatSneeze_toolkit/CatSneeze_toolkit/_ti_sdk/simplelink_cc13xx_cc26xx_sdk_8_32_00_07/source/ti/drivers/lib/gcc/m4f/drivers_cc13x2x7.a(PowerCC26X2_calibrateRCOSC_helpers.c.obj)
                                        0x4e0 (size before relaxing)
 .debug_str     0x0000000000005ac1      0x2f8 /home/runner/work/CatSneeze_toolkit/CatSneeze_toolkit/_ti_sdk/simplelink_cc13xx_cc26xx_sdk_8_32_00_07/source/ti/drivers/lib/gcc/m4f/drivers_cc13x2x7.a(PowerCC26X2_helpers.c.obj)
                                        0x7bb (size before relaxing)
 .debug_str     0x0000000000005db9      0x141 /home/runner/work/CatSneeze_toolkit/CatSneeze_toolkit/_ti_sdk/simplelink_cc13xx_cc26xx_sdk_8_32_00_07/source/ti/drivers/lib/gcc/m4f/drivers_cc13x2x7.a(RingBuf.c.obj)
                                        0x45d (size before relaxing)
 .debug_str     0x0000000000005efa      0x165 /home/runner/work/CatSneeze_toolkit/CatSneeze_toolkit/_ti_sdk/simplelink_cc13xx_cc26xx_sdk_8_32_00_07/source/ti/drivers/lib/gcc/m4f/drivers_cc13x2x7.a(UDMACC26XX.c.obj)
                                        0x577 (size before relaxing)
 .debug_str     0x000000000000605f      0x25c /home/runner/work/CatSneeze_toolkit/CatSneeze_toolkit/_ti_sdk/simplelink_cc13xx_cc26xx_sdk_8_32_00_07/source/ti/drivers/lib/gcc/m4f/drivers_cc13x2x7.a(GPIOCC26XX.c.obj)
                                        0x514 (size before relaxing)
 .debug_str     0x00000000000062bb      0x273 /home/runner/work/CatSneeze_toolkit/CatSneeze_toolkit/_ti_sdk/simplelink_cc13xx_cc26xx_sdk_8_32_00_07/kernel/nortos/lib/gcc/m4f/nortos_cc13x2x7.a(NoRTOS.c.obj)
                                        0x402 (size before relaxing)
 .debug_str     0x000000000000652e      0x1fc /home/runner/work/CatSneeze_toolkit/CatSneeze_toolkit/_ti_sdk/simplelink_cc13xx_cc26xx_sdk_8_32_00_07/kernel/nortos/lib/gcc/m4f/nortos_cc13x2x7.a(SemaphoreP_nortos.c.obj)
                                        0x649 (size before relaxing)
 .debug_str     0x000000000000672a      0x30c /home/runner/work/CatSneeze_toolkit/CatSneeze_toolkit/_ti_sdk/simplelink_cc13xx_cc26xx_sdk_8_32_00_07/kernel/nortos/lib/gcc/m4f/nortos_cc13x2x7.a(SwiP_nortos.c.obj)
                                        0x700 (size before relaxing)
 .debug_str     0x0000000000006a36      0x5b7 /home/runner/work/CatSneeze_toolkit/CatSneeze_toolkit/_ti_sdk/simplelink_cc13xx_cc26xx_sdk_8_32_00_07/kernel/nortos/lib/gcc/m4f/nortos_cc13x2x7.a(ClockPTimer_nortos.c.obj)
                                        0xba8 (size before relaxing)
 .debug_str     0x0000000000006fed      0x124 /home/runner/work/CatSneeze_toolkit/CatSneeze_toolkit/_ti_sdk/simplelink_cc13xx_cc26xx_sdk_8_32_00_07/kernel/nortos/lib/gcc/m4f/nortos_cc13x2x7.a(QueueP_nortos.c.obj)
                                        0x3df (size before relaxing)
 .debug_str     0x0000000000007111      0x392 /home/runner/work/CatSneeze_toolkit/CatSneeze_toolkit/_ti_sdk/simplelink_cc13xx_cc26xx_sdk_8_32_00_07/kernel/nortos/lib/gcc/m4f/nortos_cc13x2x7.a(HwiPCC26XX_nortos.c.obj)
                                        0x767 (size before relaxing)
 .debug_str     0x00000000000074a3      0x13d /home/runner/work/CatSneeze_toolkit/CatSneeze_toolkit/_ti_sdk/simplelink_cc13xx_cc26xx_sdk_8_32_00_07/kernel/nortos/lib/gcc/m4f/nortos_cc13x2x7.a(PowerCC26X2_nortos.c.obj)
                                        0x80e (size before relaxing)
 .debug_str     0x00000000000075e0      0x27a /home/runner/work/CatSneeze_toolkit/CatSneeze_toolkit/_ti_sdk/simplelink_cc13xx_cc26xx_sdk_8_32_00_07/kernel/nortos/lib/gcc/m4f/nortos_cc13x2x7.a(TimerPCC26XX_nortos.c.obj)
                                        0x6b2 (size before relaxing)
 .debug_str     0x000000000000785a      0x514 /home/runner/work/CatSneeze_toolkit/CatSneeze_toolkit/_ti_sdk/simplelink_cc13xx_cc26xx_sdk_8_32_00_07/source/ti/devices/cc13x2x7_cc26x2x7/driverlib/bin/gcc/driverlib.lib(chipinfo.c.obj)
                                        0x95a (size before relaxing)
 .debug_str     0x0000000000007d6e       0xfd /home/runner/work/CatSneeze_toolkit/CatSneeze_toolkit/_ti_sdk/simplelink_cc13xx_cc26xx_sdk_8_32_00_07/source/ti/devices/cc13x2x7_cc26x2x7/driverlib/bin/gcc/driverlib.lib(cpu.c.obj)
                                        0x34a (size before relaxing)
 .debug_str     0x0000000000007e6b      0x236 /home/runner/work/CatSneeze_toolkit/CatSneeze_toolkit/_ti_sdk/simplelink_cc13xx_cc26xx_sdk_8_32_00_07/source/ti/devices/cc13x2x7_cc26x2x7/driverlib/bin/gcc/driverlib.lib(interrupt.c.obj)
                                        0x495 (size before relaxing)
 .debug_str     0x00000000000080a1      0x860 /home/runner/work/CatSneeze_toolkit/CatSneeze_toolkit/_ti_sdk/simplelink_cc13xx_cc26xx_sdk_8_32_00_07/source/ti/devices/cc13x2x7_cc26x2x7/driverlib/bin/gcc/driverlib.lib(osc.c.obj)
                                        0xd02 (size before relaxing)
 .debug_str     0x0000000000008901      0x3db /home/runner/work/CatSneeze_toolkit/CatSneeze_toolkit/_ti_sdk/simplelink_cc13xx_cc26xx_sdk_8_32_00_07/source/ti/devices/cc13x2x7_cc26x2x7/driverlib/bin/gcc/driverlib.lib(prcm.c.obj)
                                        0x64a (size before relaxing)
 .debug_str     0x0000000000008cdc      0x207 /home/runner/work/CatSneeze_toolkit/CatSneeze_toolkit/_ti_sdk/simplelink_cc13xx_cc26xx_sdk_8_32_00_07/source/ti/devices/cc13x2x7_cc26x2x7/driverlib/bin/gcc/driverlib.lib(setup.c.obj)
                                        0x477 (size before relaxing)
 .debug_str     0x0000000000008ee3      0x283 /home/runner/work/CatSneeze_toolkit/CatSneeze_toolkit/_ti_sdk/simplelink_cc13xx_cc26xx_sdk_8_32_00_07/source/ti/devices/cc13x2x7_cc26x2x7/driverlib/bin/gcc/driverlib.lib(sys_ctrl.c.obj)
                                        0x5a7 (size before relaxing)
 .debug_str     0x0000000000009166      0x132 /home/runner/work/CatSneeze_toolkit/CatSneeze_toolkit/_ti_sdk/simplelink_cc13xx_cc26xx_sdk_8_32_00_07/source/ti/devices/cc13x2x7_cc26x2x7/driverlib/bin/gcc/driverlib.lib(aux_sysif.c.obj)
                                        0x36e (size before relaxing)
 .debug_str     0x0000000000009298       0xa6 /usr/lib/gcc/arm-none-eabi/10.3.1/thumb/v7e-m+fp/hard/libgcc.a(_aeabi_uldivmod.o)
 .debug_str     0x000000000000933e      0x544 /usr/lib/gcc/arm-none-eabi/10.3.1/thumb/v7e-m+fp/hard/libgcc.a(_udivmoddi4.o)
                                        0x647 (size before relaxing)
 .debug_str     0x0000000000009882       0x30 /usr/lib/gcc/arm-none-eabi/10.3.1/thumb/v7e-m+fp/hard/libgcc.a(_dvmd_tls.o)
                                         0xaa (size before relaxing)
 .debug_str     0x00000000000098b2      0x400 /usr/lib/gcc/arm-none-eabi/10.3.1/../../../arm-none-eabi/lib/thumb/v7e-m+fp/hard/libc_nano.a(lib_a-atoi.o)
                                        0x512 (size before relaxing)
 .debug_str     0x0000000000009cb2       0x9c /usr/lib/gcc/arm-none-eabi/10.3.1/../../../arm-none-eabi/lib/thumb/v7e-m+fp/hard/libc_nano.a(lib_a-ctype_.o)
                                        0x1a4 (size before relaxing)
 .debug_str     0x0000000000009d4e       0xaa /usr/lib/gcc/arm-none-eabi/10.3.1/../../../arm-none-eabi/lib/thumb/v7e-m+fp/hard/libc_nano.a(lib_a-memcpy.o)
                                         0xb6 (size before relaxing)
 .debug_str     0x0000000000009df8       0xa3 /usr/lib/gcc/arm-none-eabi/10.3.1/../../../arm-none-eabi/lib/thumb/v7e-m+fp/hard/libc_nano.a(lib_a-memset.o)
                                        0x1c0 (size before relaxing)
 .debug_str     0x0000000000009e9b       0xbc /usr/lib/gcc/arm-none-eabi/10.3.1/../../../arm-none-eabi/lib/thumb/v7e-m+fp/hard/libc_nano.a(lib_a-nano-freer.o)
                                        0x595 (size before relaxing)
 .debug_str     0x0000000000009f57       0x50 /usr/lib/gcc/arm-none-eabi/10.3.1/../../../arm-none-eabi/lib/thumb/v7e-m+fp/hard/libc_nano.a(lib_a-nano-mallocr.o)
                                        0x5c0 (size before relaxing)
 .debug_str     0x0000000000009fa7       0xa8 /usr/lib/gcc/arm-none-eabi/10.3.1/../../../arm-none-eabi/lib/thumb/v7e-m+fp/hard/libc_nano.a(lib_a-sbrkr.o)
                                        0x516 (size before relaxing)
 .debug_str     0x000000000000a04f       0x3b /usr/lib/gcc/arm-none-eabi/10.3.1/../../../arm-none-eabi/lib/thumb/v7e-m+fp/hard/libc_nano.a(lib_a-strchr.o)
                                        0x1b7 (size before relaxing)
 .debug_str     0x000000000000a08a       0x42 /usr/lib/gcc/arm-none-eabi/10.3.1/../../../arm-none-eabi/lib/thumb/v7e-m+fp/hard/libc_nano.a(lib_a-strcmp.o)
                                         0xb5 (size before relaxing)
 .debug_str     0x000000000000a0cc       0x42 /usr/lib/gcc/arm-none-eabi/10.3.1/../../../arm-none-eabi/lib/thumb/v7e-m+fp/hard/libc_nano.a(lib_a-strlen.o)
                                         0xb5 (size before relaxing)
 .debug_str     0x000000000000a10e       0x3d /usr/lib/gcc/arm-none-eabi/10.3.1/../../../arm-none-eabi/lib/thumb/v7e-m+fp/hard/libc_nano.a(lib_a-strncmp.o)
                                        0x1ae (size before relaxing)
 .debug_str     0x000000000000a14b      0x1e8 /usr/lib/gcc/arm-none-eabi/10.3.1/../../../arm-none-eabi/lib/thumb/v7e-m+fp/hard/libc_nano.a(lib_a-strtol.o)
                                        0x77a (size before relaxing)
 .debug_str     0x000000000000a333       0xd9 /usr/lib/gcc/arm-none-eabi/10.3.1/../../../arm-none-eabi/lib/thumb/v7e-m+fp/hard/libc_nano.a(lib_a-vsnprintf.o)
                                        0x55e (size before relaxing)
 .debug_str     0x000000000000a40c       0x93 /usr/lib/gcc/arm-none-eabi/10.3.1/../../../arm-none-eabi/lib/thumb/v7e-m+fp/hard/libc_nano.a(lib_a-errno.o)
                                        0x507 (size before relaxing)
 .debug_str     0x000000000000a49f       0x91 /usr/lib/gcc/arm-none-eabi/10.3.1/../../../arm-none-eabi/lib/thumb/v7e-m+fp/hard/libc_nano.a(lib_a-impure.o)
                                        0x55e (size before relaxing)
 .debug_str     0x000000000000a530       0x4c /usr/lib/gcc/arm-none-eabi/10.3.1/../../../arm-none-eabi/lib/thumb/v7e-m+fp/hard/libc_nano.a(lib_a-mlock.o)
                                        0x52c (size before relaxing)
 .debug_str     0x000000000000a57c      0x137 /usr/lib/gcc/arm-none-eabi/10.3.1/../../../arm-none-eabi/lib/thumb/v7e-m+fp/hard/libc_nano.a(lib_a-nano-svfprintf.o)
                                        0x855 (size before relaxing)
 .debug_str     0x000000000000a6b3       0x94 /usr/lib/gcc/arm-none-eabi/10.3.1/../../../arm-none-eabi/lib/thumb/v7e-m+fp/hard/libc_nano.a(lib_a-nano-vfprintf_i.o)
                                        0x7ec (size before relaxing)
 .debug_str     0x000000000000a747       0x5e /usr/lib/gcc/arm-none-eabi/10.3.1/../../../arm-none-eabi/lib/thumb/v7e-m+fp/hard/libc_nano.a(lib_a-reent.o)
                                        0x53e (size before relaxing)
 .debug_str     0x000000000000a7a5       0x3c /usr/lib/gcc/arm-none-eabi/10.3.1/../../../arm-none-eabi/lib/thumb/v7e-m+fp/hard/libc_nano.a(lib_a-memchr.o)
                                         0xaf (size before relaxing)
 .debug_str     0x000000000000a7e1       0x5f /usr/lib/gcc/arm-none-eabi/10.3.1/../../../arm-none-eabi/lib/thumb/v7e-m+fp/hard/libc_nano.a(lib_a-memmove.o)
                                        0x1df (size before relaxing)
 .debug_str     0x000000000000a840       0x23 /usr/lib/gcc/arm-none-eabi/10.3.1/../../../arm-none-eabi/lib/thumb/v7e-m+fp/hard/libc_nano.a(lib_a-nano-reallocr.o)
                                        0x57f (size before relaxing)
 .debug_str     0x000000000000a863        0xf /usr/lib/gcc/arm-none-eabi/10.3.1/../../../arm-none-eabi/lib/thumb/v7e-m+fp/hard/libc_nano.a(lib_a-nano-msizer.o)
                                        0x55d (size before relaxing)
 .debug_str     0x000000000000a872       0xf8 /usr/lib/gcc/arm-none-eabi/10.3.1/../../../arm-none-eabi/lib/thumb/v7e-m+fp/hard/libnosys.a(sbrk.o)
                                        0x111 (size before relaxing)

.debug_frame    0x0000000000000000     0x34f4
 .debug_frame   0x0000000000000000      0xabc /home/runner/work/CatSneeze_toolkit/CatSneeze_toolkit/_ti_sdk/simplelink_cc13xx_cc26xx_sdk_8_32_00_07/source/ti/drivers/rf/lib/gcc/m4f/rf_multiMode_cc13x2.a(RFCC26X2_multiMode.c.cc13x2.gcc.o)
 .debug_frame   0x0000000000000abc       0x9c /home/runner/work/CatSneeze_toolkit/CatSneeze_toolkit/_ti_sdk/simplelink_cc13xx_cc26xx_sdk_8_32_00_07/source/ti/drivers/rf/lib/gcc/m4f/rf_multiMode_cc13x2.a(rfc.c.cc13x2.gcc.o)
 .debug_frame   0x0000000000000b58       0x5c /home/runner/work/CatSneeze_toolkit/CatSneeze_toolkit/_ti_sdk/simplelink_cc13xx_cc26xx_sdk_8_32_00_07/source/ti/drivers/rf/lib/gcc/m4f/rf_multiMode_cc13x2.a(rf_patch_cpe_prop.c.cc13x2.gcc.o)
 .debug_frame   0x0000000000000bb4       0xf8 /home/runner/work/CatSneeze_toolkit/CatSneeze_toolkit/_ti_sdk/simplelink_cc13xx_cc26xx_sdk_8_32_00_07/source/ti/drivers/lib/gcc/m4f/drivers_cc13x2x7.a(List.c.obj)
 .debug_frame   0x0000000000000cac      0x3d4 /home/runner/work/CatSneeze_toolkit/CatSneeze_toolkit/_ti_sdk/simplelink_cc13xx_cc26xx_sdk_8_32_00_07/source/ti/drivers/lib/gcc/m4f/drivers_cc13x2x7.a(PowerCC26X2.c.obj)
 .debug_frame   0x0000000000001080       0xb8 /home/runner/work/CatSneeze_toolkit/CatSneeze_toolkit/_ti_sdk/simplelink_cc13xx_cc26xx_sdk_8_32_00_07/source/ti/drivers/lib/gcc/m4f/drivers_cc13x2x7.a(PowerCC26X2_calibrateRCOSC.c.obj)
 .debug_frame   0x0000000000001138      0x240 /home/runner/work/CatSneeze_toolkit/CatSneeze_toolkit/_ti_sdk/simplelink_cc13xx_cc26xx_sdk_8_32_00_07/source/ti/drivers/lib/gcc/m4f/drivers_cc13x2x7.a(UART2.c.obj)
 .debug_frame   0x0000000000001378      0x294 /home/runner/work/CatSneeze_toolkit/CatSneeze_toolkit/_ti_sdk/simplelink_cc13xx_cc26xx_sdk_8_32_00_07/source/ti/drivers/lib/gcc/m4f/drivers_cc13x2x7.a(UART2CC26X2.c.obj)
 .debug_frame   0x000000000000160c      0x140 /home/runner/work/CatSneeze_toolkit/CatSneeze_toolkit/_ti_sdk/simplelink_cc13xx_cc26xx_sdk_8_32_00_07/source/ti/drivers/lib/gcc/m4f/drivers_cc13x2x7.a(PowerCC26X2_calibrateRCOSC_helpers.c.obj)
 .debug_frame   0x000000000000174c      0x1d4 /home/runner/work/CatSneeze_toolkit/CatSneeze_toolkit/_ti_sdk/simplelink_cc13xx_cc26xx_sdk_8_32_00_07/source/ti/drivers/lib/gcc/m4f/drivers_cc13x2x7.a(PowerCC26X2_helpers.c.obj)
 .debug_frame   0x0000000000001920      0x17c /home/runner/work/CatSneeze_toolkit/CatSneeze_toolkit/_ti_sdk/simplelink_cc13xx_cc26xx_sdk_8_32_00_07/source/ti/drivers/lib/gcc/m4f/drivers_cc13x2x7.a(RingBuf.c.obj)
 .debug_frame   0x0000000000001a9c       0x84 /home/runner/work/CatSneeze_toolkit/CatSneeze_toolkit/_ti_sdk/simplelink_cc13xx_cc26xx_sdk_8_32_00_07/source/ti/drivers/lib/gcc/m4f/drivers_cc13x2x7.a(UDMACC26XX.c.obj)
 .debug_frame   0x0000000000001b20      0x128 /home/runner/work/CatSneeze_toolkit/CatSneeze_toolkit/_ti_sdk/simplelink_cc13xx_cc26xx_sdk_8_32_00_07/source/ti/drivers/lib/gcc/m4f/drivers_cc13x2x7.a(GPIOCC26XX.c.obj)
 .debug_frame   0x0000000000001c48       0x48 /home/runner/work/CatSneeze_toolkit/CatSneeze_toolkit/_ti_sdk/simplelink_cc13xx_cc26xx_sdk_8_32_00_07/kernel/nortos/lib/gcc/m4f/nortos_cc13x2x7.a(NoRTOS.c.obj)
 .debug_frame   0x0000000000001c90      0x150 /home/runner/work/CatSneeze_toolkit/CatSneeze_toolkit/_ti_sdk/simplelink_cc13xx_cc26xx_sdk_8_32_00_07/kernel/nortos/lib/gcc/m4f/nortos_cc13x2x7.a(SemaphoreP_nortos.c.obj)
 .debug_frame   0x0000000000001de0      0x274 /home/runner/work/CatSneeze_toolkit/CatSneeze_toolkit/_ti_sdk/simplelink_cc13xx_cc26xx_sdk_8_32_00_07/kernel/nortos/lib/gcc/m4f/nortos_cc13x2x7.a(SwiP_nortos.c.obj)
 .debug_frame   0x0000000000002054      0x358 /home/runner/work/CatSneeze_toolkit/CatSneeze_toolkit/_ti_sdk/simplelink_cc13xx_cc26xx_sdk_8_32_00_07/kernel/nortos/lib/gcc/m4f/nortos_cc13x2x7.a(ClockPTimer_nortos.c.obj)
 .debug_frame   0x00000000000023ac      0x134 /home/runner/work/CatSneeze_toolkit/CatSneeze_toolkit/_ti_sdk/simplelink_cc13xx_cc26xx_sdk_8_32_00_07/kernel/nortos/lib/gcc/m4f/nortos_cc13x2x7.a(QueueP_nortos.c.obj)
 .debug_frame   0x00000000000024e0      0x1c4 /home/runner/work/CatSneeze_toolkit/CatSneeze_toolkit/_ti_sdk/simplelink_cc13xx_cc26xx_sdk_8_32_00_07/kernel/nortos/lib/gcc/m4f/nortos_cc13x2x7.a(HwiPCC26XX_nortos.c.obj)
 .debug_frame   0x00000000000026a4       0x6c /home/runner/work/CatSneeze_toolkit/CatSneeze_toolkit/_ti_sdk/simplelink_cc13xx_cc26xx_sdk_8_32_00_07/kernel/nortos/lib/gcc/m4f/nortos_cc13x2x7.a(PowerCC26X2_nortos.c.obj)
 .debug_frame   0x0000000000002710      0x178 /home/runner/work/CatSneeze_toolkit/CatSneeze_toolkit/_ti_sdk/simplelink_cc13xx_cc26xx_sdk_8_32_00_07/kernel/nortos/lib/gcc/m4f/nortos_cc13x2x7.a(TimerPCC26XX_nortos.c.obj)
 .debug_frame   0x0000000000002888       0x70 /home/runner/work/CatSneeze_toolkit/CatSneeze_toolkit/_ti_sdk/simplelink_cc13xx_cc26xx_sdk_8_32_00_07/source/ti/devices/cc13x2x7_cc26x2x7/driverlib/bin/gcc/driverlib.lib(chipinfo.c.obj)
 .debug_frame   0x00000000000028f8       0x60 /home/runner/work/CatSneeze_toolkit/CatSneeze_toolkit/_ti_sdk/simplelink_cc13xx_cc26xx_sdk_8_32_00_07/source/ti/devices/cc13x2x7_cc26x2x7/driverlib/bin/gcc/driverlib.lib(cpu.c.obj)
 .debug_frame   0x0000000000002958       0xe4 /home/runner/work/CatSneeze_toolkit/CatSneeze_toolkit/_ti_sdk/simplelink_cc13xx_cc26xx_sdk_8_32_00_07/source/ti/devices/cc13x2x7_cc26x2x7/driverlib/bin/gcc/driverlib.lib(interrupt.c.obj)
 .debug_frame   0x0000000000002a3c      0x25c /home/runner/work/CatSneeze_toolkit/CatSneeze_toolkit/_ti_sdk/simplelink_cc13xx_cc26xx_sdk_8_32_00_07/source/ti/devices/cc13x2x7_cc26x2x7/driverlib/bin/gcc/driverlib.lib(osc.c.obj)
 .debug_frame   0x0000000000002c98      0x17c /home/runner/work/CatSneeze_toolkit/CatSneeze_toolkit/_ti_sdk/simplelink_cc13xx_cc26xx_sdk_8_32_00_07/source/ti/devices/cc13x2x7_cc26x2x7/driverlib/bin/gcc/driverlib.lib(prcm.c.obj)
 .debug_frame   0x0000000000002e14       0x48 /home/runner/work/CatSneeze_toolkit/CatSneeze_toolkit/_ti_sdk/simplelink_cc13xx_cc26xx_sdk_8_32_00_07/source/ti/devices/cc13x2x7_cc26x2x7/driverlib/bin/gcc/driverlib.lib(setup.c.obj)
 .debug_frame   0x0000000000002e5c       0xd0 /home/runner/work/CatSneeze_toolkit/CatSneeze_toolkit/_ti_sdk/simplelink_cc13xx_cc26xx_sdk_8_32_00_07/source/ti/devices/cc13x2x7_cc26x2x7/driverlib/bin/gcc/driverlib.lib(sys_ctrl.c.obj)
 .debug_frame   0x0000000000002f2c       0x2c /home/runner/work/CatSneeze_toolkit/CatSneeze_toolkit/_ti_sdk/simplelink_cc13xx_cc26xx_sdk_8_32_00_07/source/ti/devices/cc13x2x7_cc26x2x7/driverlib/bin/gcc/driverlib.lib(aux_sysif.c.obj)
 .debug_frame   0x0000000000002f58       0x2c /usr/lib/gcc/arm-none-eabi/10.3.1/thumb/v7e-m+fp/hard/libgcc.a(_aeabi_uldivmod.o)
 .debug_frame   0x0000000000002f84       0x34 /usr/lib/gcc/arm-none-eabi/10.3.1/thumb/v7e-m+fp/hard/libgcc.a(_udivmoddi4.o)
 .debug_frame   0x0000000000002fb8       0x30 /usr/lib/gcc/arm-none-eabi/10.3.1/../../../arm-none-eabi/lib/thumb/v7e-m+fp/hard/libc_nano.a(lib_a-atoi.o)
 .debug_frame   0x0000000000002fe8       0x2c /usr/lib/gcc/arm-none-eabi/10.3.1/../../../arm-none-eabi/lib/thumb/v7e-m+fp/hard/libc_nano.a(lib_a-memset.o)
 .debug_frame   0x0000000000003014       0x54 /usr/lib/gcc/arm-none-eabi/10.3.1/../../../arm-none-eabi/lib/thumb/v7e-m+fp/hard/libc_nano.a(lib_a-nano-freer.o)
 .debug_frame   0x0000000000003068       0x30 /usr/lib/gcc/arm-none-eabi/10.3.1/../../../arm-none-eabi/lib/thumb/v7e-m+fp/hard/libc_nano.a(lib_a-nano-mallocr.o)
 .debug_frame   0x0000000000003098       0x2c /usr/lib/gcc/arm-none-eabi/10.3.1/../../../arm-none-eabi/lib/thumb/v7e-m+fp/hard/libc_nano.a(lib_a-sbrkr.o)
 .debug_frame   0x00000000000030c4       0x34 /usr/lib/gcc/arm-none-eabi/10.3.1/../../../arm-none-eabi/lib/thumb/v7e-m+fp/hard/libc_nano.a(lib_a-strchr.o)
 .debug_frame   0x00000000000030f8       0x68 /usr/lib/gcc/arm-none-eabi/10.3.1/../../../arm-none-eabi/lib/thumb/v7e-m+fp/hard/libc_nano.a(lib_a-strcmp.o)
 .debug_frame   0x0000000000003160       0x38 /usr/lib/gcc/arm-none-eabi/10.3.1/../../../arm-none-eabi/lib/thumb/v7e-m+fp/hard/libc_nano.a(lib_a-strncmp.o)
 .debug_frame   0x0000000000003198       0x80 /usr/lib/gcc/arm-none-eabi/10.3.1/../../../arm-none-eabi/lib/thumb/v7e-m+fp/hard/libc_nano.a(lib_a-strtol.o)
 .debug_frame   0x0000000000003218       0x60 /usr/lib/gcc/arm-none-eabi/10.3.1/../../../arm-none-eabi/lib/thumb/v7e-m+fp/hard/libc_nano.a(lib_a-vsnprintf.o)
 .debug_frame   0x0000000000003278       0x20 /usr/lib/gcc/arm-none-eabi/10.3.1/../../../arm-none-eabi/lib/thumb/v7e-m+fp/hard/libc_nano.a(lib_a-errno.o)
 .debug_frame   0x0000000000003298       0x30 /usr/lib/gcc/arm-none-eabi/10.3.1/../../../arm-none-eabi/lib/thumb/v7e-m+fp/hard/libc_nano.a(lib_a-mlock.o)
 .debug_frame   0x00000000000032c8       0x98 /usr/lib/gcc/arm-none-eabi/10.3.1/../../../arm-none-eabi/lib/thumb/v7e-m+fp/hard/libc_nano.a(lib_a-nano-svfprintf.o)
 .debug_frame   0x0000000000003360       0x6c /usr/lib/gcc/arm-none-eabi/10.3.1/../../../arm-none-eabi/lib/thumb/v7e-m+fp/hard/libc_nano.a(lib_a-nano-vfprintf_i.o)
 .debug_frame   0x00000000000033cc       0x70 /usr/lib/gcc/arm-none-eabi/10.3.1/../../../arm-none-eabi/lib/thumb/v7e-m+fp/hard/libc_nano.a(lib_a-reent.o)
 .debug_frame   0x000000000000343c       0x40 /usr/lib/gcc/arm-none-eabi/10.3.1/../../../arm-none-eabi/lib/thumb/v7e-m+fp/hard/libc_nano.a(lib_a-memmove.o)
 .debug_frame   0x000000000000347c       0x38 /usr/lib/gcc/arm-none-eabi/10.3.1/../../../arm-none-eabi/lib/thumb/v7e-m+fp/hard/libc_nano.a(lib_a-nano-reallocr.o)
 .debug_frame   0x00000000000034b4       0x20 /usr/lib/gcc/arm-none-eabi/10.3.1/../../../arm-none-eabi/lib/thumb/v7e-m+fp/hard/libc_nano.a(lib_a-nano-msizer.o)
 .debug_frame   0x00000000000034d4       0x20 /usr/lib/gcc/arm-none-eabi/10.3.1/../../../arm-none-eabi/lib/thumb/v7e-m+fp/hard/libnosys.a(sbrk.o)

.debug_loc      0x0000000000000000     0x4042
 .debug_loc     0x0000000000000000     0x100f /usr/lib/gcc/arm-none-eabi/10.3.1/thumb/v7e-m+fp/hard/libgcc.a(_udivmoddi4.o)
 .debug_loc     0x000000000000100f       0x6f /usr/lib/gcc/arm-none-eabi/10.3.1/../../../arm-none-eabi/lib/thumb/v7e-m+fp/hard/libc_nano.a(lib_a-atoi.o)
 .debug_loc     0x000000000000107e      0x22c /usr/lib/gcc/arm-none-eabi/10.3.1/../../../arm-none-eabi/lib/thumb/v7e-m+fp/hard/libc_nano.a(lib_a-memset.o)
 .debug_loc     0x00000000000012aa      0x203 /usr/lib/gcc/arm-none-eabi/10.3.1/../../../arm-none-eabi/lib/thumb/v7e-m+fp/hard/libc_nano.a(lib_a-nano-freer.o)
 .debug_loc     0x00000000000014ad      0x3cd /usr/lib/gcc/arm-none-eabi/10.3.1/../../../arm-none-eabi/lib/thumb/v7e-m+fp/hard/libc_nano.a(lib_a-nano-mallocr.o)
 .debug_loc     0x000000000000187a       0x6c /usr/lib/gcc/arm-none-eabi/10.3.1/../../../arm-none-eabi/lib/thumb/v7e-m+fp/hard/libc_nano.a(lib_a-sbrkr.o)
 .debug_loc     0x00000000000018e6      0x1e9 /usr/lib/gcc/arm-none-eabi/10.3.1/../../../arm-none-eabi/lib/thumb/v7e-m+fp/hard/libc_nano.a(lib_a-strchr.o)
 .debug_loc     0x0000000000001acf      0x19a /usr/lib/gcc/arm-none-eabi/10.3.1/../../../arm-none-eabi/lib/thumb/v7e-m+fp/hard/libc_nano.a(lib_a-strncmp.o)
 .debug_loc     0x0000000000001c69      0xaa7 /usr/lib/gcc/arm-none-eabi/10.3.1/../../../arm-none-eabi/lib/thumb/v7e-m+fp/hard/libc_nano.a(lib_a-strtol.o)
 .debug_loc     0x0000000000002710      0x414 /usr/lib/gcc/arm-none-eabi/10.3.1/../../../arm-none-eabi/lib/thumb/v7e-m+fp/hard/libc_nano.a(lib_a-vsnprintf.o)
 .debug_loc     0x0000000000002b24      0x82e /usr/lib/gcc/arm-none-eabi/10.3.1/../../../arm-none-eabi/lib/thumb/v7e-m+fp/hard/libc_nano.a(lib_a-nano-svfprintf.o)
 .debug_loc     0x0000000000003352      0x5dd /usr/lib/gcc/arm-none-eabi/10.3.1/../../../arm-none-eabi/lib/thumb/v7e-m+fp/hard/libc_nano.a(lib_a-nano-vfprintf_i.o)
 .debug_loc     0x000000000000392f      0x1cd /usr/lib/gcc/arm-none-eabi/10.3.1/../../../arm-none-eabi/lib/thumb/v7e-m+fp/hard/libc_nano.a(lib_a-reent.o)
 .debug_loc     0x0000000000003afc      0x34f /usr/lib/gcc/arm-none-eabi/10.3.1/../../../arm-none-eabi/lib/thumb/v7e-m+fp/hard/libc_nano.a(lib_a-memmove.o)
 .debug_loc     0x0000000000003e4b      0x133 /usr/lib/gcc/arm-none-eabi/10.3.1/../../../arm-none-eabi/lib/thumb/v7e-m+fp/hard/libc_nano.a(lib_a-nano-reallocr.o)
 .debug_loc     0x0000000000003f7e       0x86 /usr/lib/gcc/arm-none-eabi/10.3.1/../../../arm-none-eabi/lib/thumb/v7e-m+fp/hard/libc_nano.a(lib_a-nano-msizer.o)
 .debug_loc     0x0000000000004004       0x3e /usr/lib/gcc/arm-none-eabi/10.3.1/../../../arm-none-eabi/lib/thumb/v7e-m+fp/hard/libnosys.a(sbrk.o)

.debug_ranges   0x0000000000000000      0x2a8
 .debug_ranges  0x0000000000000000       0xe8 /usr/lib/gcc/arm-none-eabi/10.3.1/thumb/v7e-m+fp/hard/libgcc.a(_udivmoddi4.o)
 .debug_ranges  0x00000000000000e8       0x20 /usr/lib/gcc/arm-none-eabi/10.3.1/../../../arm-none-eabi/lib/thumb/v7e-m+fp/hard/libc_nano.a(lib_a-nano-freer.o)
 .debug_ranges  0x0000000000000108       0x38 /usr/lib/gcc/arm-none-eabi/10.3.1/../../../arm-none-eabi/lib/thumb/v7e-m+fp/hard/libc_nano.a(lib_a-nano-mallocr.o)
 .debug_ranges  0x0000000000000140       0x58 /usr/lib/gcc/arm-none-eabi/10.3.1/../../../arm-none-eabi/lib/thumb/v7e-m+fp/hard/libc_nano.a(lib_a-strtol.o)
 .debug_ranges  0x0000000000000198       0x30 /usr/lib/gcc/arm-none-eabi/10.3.1/../../../arm-none-eabi/lib/thumb/v7e-m+fp/hard/libc_nano.a(lib_a-vsnprintf.o)
 .debug_ranges  0x00000000000001c8       0x40 /usr/lib/gcc/arm-none-eabi/10.3.1/../../../arm-none-eabi/lib/thumb/v7e-m+fp/hard/libc_nano.a(lib_a-nano-svfprintf.o)
 .debug_ranges  0x0000000000000208       0xa0 /usr/lib/gcc/arm-none-eabi/10.3.1/../../../arm-none-eabi/lib/thumb/v7e-m+fp/hard/libc_nano.a(lib_a-nano-vfprintf_i.o)
